(lp0
(dp1
S'sheep'
p2
(lp3
sS'horse'
p4
(lp5
sS'bicycle'
p6
(lp7
I286
aI260
aI57
aI93
aI58
aI260
aI31
aI307
aI165
aI284
aI257
aI306
aI295
aI264
aI116
aI313
aI69
aI327
aI303
aI130
aI271
aI284
aI305
aI268
aI115
aI82
aI213
aI154
aI103
aI37
aI359
aI347
aI275
aI64
aI222
aI270
aI155
aI182
aI186
aI185
aI176
aI179
aI5
aI237
aI161
aI93
aI22
aI95
aI100
aI62
aI93
aI85
aI253
aI112
aI78
aI117
aI242
aI101
aI101
aI40
aI74
aI119
aI297
aI57
aI51
aI190
aI227
aI110
aI108
aI275
aI273
aI255
aI142
aI286
aI314
aI158
aI53
aI270
aI84
aI22
aI236
aI261
aI231
aI339
aI45
aI257
aI63
aI34
aI302
aI307
aI272
aI329
aI338
aI235
aI26
aI247
aI22
aI112
aI228
aI61
aI160
aI344
aI328
aI248
aI33
aI242
aI124
aI178
aI200
aI30
aI43
aI27
aI87
aI64
aI57
aI57
aI52
aI45
aI127
aI315
aI178
aI294
aI301
aI174
aI175
aI182
aI329
aI314
aI349
aI346
aI345
aI355
aI134
aI335
aI328
aI62
aI93
aI337
aI331
aI310
aI114
aI251
aI117
aI322
aI170
aI270
aI166
aI173
aI171
aI57
aI157
aI254
aI229
aI112
aI74
aI254
aI292
aI270
aI136
aI292
aI59
aI247
aI291
aI350
aI95
aI311
aI292
aI180
aI188
aI189
aI180
aI147
aI239
aI28
aI57
aI45
aI269
aI164
aI49
aI33
aI50
aI249
aI213
aI262
aI292
aI292
aI184
aI146
aI235
aI314
aI142
aI331
aI0
aI10
aI282
aI270
aI77
aI58
aI74
aI315
aI325
aI276
aI116
aI27
aI4
aI228
aI45
aI67
aI327
aI150
aI6
aI247
aI30
aI13
aI0
aI340
aI83
aI206
aI209
aI82
aI155
aI335
aI111
aI35
aI277
aI0
aI127
aI180
aI53
aI77
aI270
aI18
aI340
aI52
aI298
aI89
aI75
aI118
aI113
aI50
aI0
aI86
aI143
aI56
aI242
aI277
aI257
aI187
aI220
aI55
aI160
aI315
aI287
aI0
aI310
aI281
aI267
aI272
aI297
aI300
aI67
aI84
aI352
aI6
aI288
aI227
aI95
aI151
aI260
aI0
aI258
aI15
aI178
aI190
aI0
aI306
aI75
aI60
aI270
aI256
aI232
aI30
aI210
aI250
aI117
aI17
aI76
aI347
aI352
aI17
aI20
aI25
aI264
aI79
aI294
aI344
aI161
aI48
aI343
aI42
aI37
aI46
aI223
aI92
aI74
aI87
aI87
aI286
aI293
aI299
aI306
aI267
aI288
aI91
aI218
aI300
aI317
aI18
aI318
aI315
aI97
aI94
aI85
aI345
aI125
aI275
aI302
aI311
aI320
aI111
aI312
aI33
aI271
aI72
aI277
aI45
aI37
aI70
aI72
aI270
aI250
aI315
aI302
aI165
aI112
aI255
aI198
aI312
aI43
aI69
aI94
aI36
aI133
aI304
aI297
aI102
aI298
aI343
aI292
aI260
aI37
aI222
aI162
aI33
aI323
aI127
aI83
aI304
aI206
aI210
aI305
aI316
aI41
aI54
aI135
aI132
aI67
aI71
aI222
aI79
aI57
aI359
aI0
aI5
aI221
aI46
aI267
aI304
aI65
aI79
aI316
aI79
aI111
aI80
aI79
aI320
aI62
aI87
aI68
aI277
aI152
aI164
aI184
aI274
aI316
aI36
aI302
aI336
aI290
aI64
aI1
aI267
aI82
aI114
aI284
aI14
aI255
aI217
aI47
aI262
aI329
aI303
aI117
aI206
aI280
aI36
aI300
aI198
aI42
aI23
aI301
aI130
aI68
aI180
aI55
aI226
aI63
aI346
aI348
aI0
aI223
aI326
aI295
aI61
aI0
aI67
aI119
aI73
aI87
aI333
aI330
aI67
aI57
aI331
aI0
aI255
aI77
aI50
aI100
aI171
aI186
aI246
aI305
aI249
aI9
aI247
aI62
aI333
aI117
aI174
aI27
aI55
aI300
aI140
aI19
aI264
aI295
aI6
aI272
aI147
aI290
aI311
aI62
aI154
aI341
aI106
aI89
aI12
aI248
aI116
aI44
aI15
aI59
aI67
aI11
aI33
aI18
aI293
aI238
aI200
aI269
aI16
aI35
aI333
aI4
aI213
aI286
aI356
aI342
aI324
aI287
aI337
aI216
aI103
aI287
aI339
aI245
aI2
aI249
aI242
aI78
aI67
aI49
aI209
aI52
aI268
aI116
aI182
aI80
aI217
aI342
aI0
aI312
aI57
aI252
aI62
aI247
aI267
aI99
aI72
aI306
aI316
aI85
aI319
aI292
aI273
aI66
aI25
aI72
aI239
aI1
aI120
aI252
aI0
aI8
aI271
aI112
aI40
aI184
aI279
aI47
aI306
aI334
aI356
aI179
aI60
aI134
aI63
aI197
aI0
aI83
aI103
aI32
aI19
aI18
aI14
aI227
aI351
aI30
aI192
aI26
aI106
aI339
aI233
aI333
aI286
aI117
aI33
aI2
aI41
aI277
aI41
aI337
aI260
aI284
aI344
aI325
aI292
aI30
aI63
aI243
aI243
aI189
aI263
aI168
aI74
aI89
aI178
aI165
aI52
aI322
aI52
aI296
aI107
aI348
aI178
aI58
aI222
aI17
aI207
aI340
aI97
aI67
aI272
aI305
aI294
aI71
aI21
aI111
aI237
aI18
aI287
aI119
aI0
aI67
aI20
aI8
aI112
aI261
aI251
aI22
aI222
aI3
aI251
aI339
aI218
aI38
aI69
aI341
aI277
aI21
aI197
aI292
aI152
aI282
aI31
aI67
aI274
aI33
aI224
aI129
aI234
aI34
aI297
aI269
aI122
aI255
aI270
aI79
aI272
aI223
aI151
aI234
aI251
aI177
aI36
aI26
aI88
aI20
aI107
aI299
aI289
aI79
aI40
aI296
aI268
aI112
aI140
aI258
aI197
aI82
aI330
aI287
aI116
aI321
aI25
aI4
aI0
aI67
aI231
aI316
aI60
aI72
aI58
aI310
aI322
aI344
aI274
aI1
aI96
aI112
aI141
aI1
aI15
aI112
aI346
aI42
aI290
aI115
aI56
aI267
aI57
aI70
aI345
aI0
aI114
aI50
aI345
aI294
aI85
aI293
aI227
aI73
aI324
aI355
aI19
aI10
aI259
aI51
aI274
aI342
aI11
aI257
aI141
aI40
aI162
aI286
aI114
aI240
aI201
aI192
aI289
aI61
aI83
aI262
aI336
aI5
aI112
aI107
aI66
aI88
aI281
aI92
aI91
aI295
aI326
aI119
aI262
aI90
aI263
aI150
aI246
aI57
aI27
aI68
aI292
aI315
aI206
aI2
aI190
aI337
aI68
aI201
aI295
aI272
aI134
aI177
aI5
aI348
aI69
aI84
aI112
aI161
aI84
aI80
aI35
aI312
aI58
aI23
aI117
aI62
aI45
aI30
aI295
aI286
aI287
aI214
aI335
aI31
aI57
aI31
aI148
aI67
aI100
aI294
aI143
aI43
aI275
aI33
aI336
aI106
aI226
aI0
aI153
aI2
aI3
aI306
aI282
aI0
aI13
aI14
aI305
aI347
aI347
aI144
aI265
aI81
aI302
aI117
aI280
aI103
aI18
aI292
aI234
aI296
aI132
aI286
aI84
aI92
aI155
aI109
aI276
aI242
aI32
aI120
aI299
aI41
aI64
aI46
aI7
aI43
aI28
aI261
aI4
aI262
aI48
aI81
aI277
aI68
aI54
aI262
aI76
aI128
aI101
aI320
aI54
aI235
aI9
aI223
aI271
aI244
aI324
aI12
aI322
aI15
aI249
aI274
aI122
aI247
aI302
aI67
aI259
aI270
aI218
aI333
aI340
aI194
aI90
aI44
aI242
aI356
aI170
aI52
aI22
aI335
aI164
aI313
aI17
aI301
aI51
aI323
aI117
aI252
aI218
aI255
aI39
aI194
aI26
aI44
aI153
aI102
aI247
aI287
aI19
aI0
aI71
aI92
aI231
aI344
aI285
aI59
aI28
aI86
aI288
aI18
aI258
aI51
aI49
aI272
aI297
aI81
aI326
aI176
aI269
aI284
aI323
aI192
aI294
aI336
aI261
aI310
aI187
aI153
aI154
aI288
aI63
aI111
aI247
aI0
aI56
aI354
aI105
aI133
aI61
aI327
aI287
aI72
aI110
aI328
aI67
aI134
aI109
aI331
aI37
aI330
aI238
aI0
aI330
aI258
aI40
aI17
aI67
aI100
aI46
aI302
aI293
aI8
aI81
aI67
aI60
aI117
aI267
aI92
aI250
aI77
aI300
aI29
aI24
aI102
aI197
aI297
aI314
aI62
aI319
aI5
aI8
aI6
aI307
aI350
aI310
aI157
aI6
aI262
aI169
aI263
aI179
aI334
aI34
aI354
aI3
aI262
aI285
aI31
aI241
aI1
aI77
aI54
aI11
aI277
aI134
aI81
aI41
aI320
aI40
aI315
aI283
aI247
aI305
aI340
aI295
aI201
aI345
aI305
aI24
aI67
aI99
aI0
aI64
aI72
aI19
aI338
aI356
aI68
aI252
aI1
aI307
aI196
aI178
aI260
aI9
aI113
aI342
aI126
aI106
aI346
aI97
aI343
aI107
aI82
aI339
aI2
aI243
aI296
aI285
aI42
aI25
aI207
aI237
aI252
aI247
aI338
aI178
aI19
aI257
aI320
aI89
aI335
aI237
aI112
aI349
aI263
aI273
aI336
aI313
aI263
aI294
aI199
aI35
aI128
aI16
aI355
aI346
aI2
aI258
aI267
aI66
aI87
aI139
aI67
aI43
aI220
aI82
aI287
aI338
aI35
aI67
aI104
aI43
aI10
aI54
aI273
aI256
aI272
aI21
aI104
aI107
aI309
aI64
aI68
aI267
aI267
aI249
aI338
aI119
aI22
aI204
aI39
aI102
aI31
aI74
aI316
aI0
aI147
aI99
aI8
aI287
aI334
aI51
aI96
aI55
aI327
aI146
aI336
aI222
aI141
aI59
aI225
aI83
aI277
aI292
aI36
aI64
aI74
aI36
aI47
aI236
aI323
aI100
aI287
aI253
aI63
aI327
aI327
aI109
aI52
aI302
aI110
aI288
aI181
aI57
aI264
aI237
aI22
aI262
aI8
aI320
aI262
aI50
aI128
aI23
aI12
aI203
aI194
aI124
aI279
aI345
aI63
aI77
aI239
aI62
aI109
aI43
aI270
aI52
aI352
aI53
aI107
aI50
aI54
aI55
aI224
aI3
aI41
aI43
aI23
aI82
aI16
aI99
aI345
aI346
aI83
aI47
aI21
aI26
aI112
aI7
aI286
aI143
aI237
aI222
aI44
aI294
aI97
aI321
aI24
aI31
aI5
aI39
aI57
aI67
aI1
aI51
aI59
aI131
aI132
aI95
aI79
aI345
aI356
aI330
aI47
aI59
aI56
aI44
aI52
aI293
aI76
aI118
aI249
aI182
aI216
aI332
aI32
aI310
aI32
aI87
aI278
aI130
aI109
aI39
aI306
aI292
aI78
aI279
aI276
aI262
aI142
aI283
aI97
aI285
aI122
aI3
aI316
aI38
aI60
aI342
aI290
aI271
aI258
aI245
aI67
aI0
aI0
aI1
aI117
aI257
aI250
aI67
aI52
aI302
aI104
aI0
aI5
aI72
aI263
aI186
aI44
aI83
aI320
aI351
aI16
aI98
aI340
aI266
aI340
aI0
aI6
aI61
aI270
aI243
aI349
aI292
aI5
aI114
aI39
aI321
aI0
aI266
aI252
aI144
aI181
aI258
aI262
aI262
aI264
aI260
aI82
aI245
aI312
aI287
aI119
aI0
aI208
aI16
aI21
aI341
aI94
aI282
aI232
aI336
aI303
aI6
aI0
aI3
aI0
aI115
aI103
aI273
aI341
aI74
aI297
aI270
aI349
aI284
aI255
aI126
aI19
aI68
aI344
aI173
aI52
aI51
aI43
aI26
aI67
aI353
aI51
aI218
aI0
aI170
aI180
aI239
aI287
aI4
aI248
aI72
aI255
aI320
aI112
aI294
aI282
aI312
aI0
aI89
aI51
aI14
aI321
aI61
aI81
aI82
aI270
aI235
aI9
aI109
aI308
aI294
aI35
aI292
aI77
aI50
aI109
aI337
aI341
aI122
aI107
aI253
aI260
aI302
aI242
aI312
aI298
aI0
aI3
aI290
aI103
aI30
aI44
aI141
aI130
aI90
aI58
aI68
aI215
aI117
aI86
aI330
aI323
aI20
aI317
aI266
aI162
aI180
aI188
aI38
aI179
aI357
aI0
aI334
aI241
aI76
aI207
aI327
aI260
aI321
aI308
aI287
aI49
aI295
aI307
aI282
aI347
aI50
aI310
aI248
aI271
aI90
aI96
aI115
aI327
aI0
aI225
aI72
aI80
aI110
aI78
aI237
aI178
aI274
aI242
aI352
aI37
aI317
aI106
aI53
aI282
aI119
aI253
aI35
aI311
aI257
aI283
aI185
aI188
aI354
aI272
aI278
aI267
aI316
aI341
aI354
aI67
aI223
aI3
aI309
aI52
aI121
aI334
aI116
aI215
aI282
aI272
aI102
aI297
aI67
aI23
aI98
aI104
aI292
aI241
aI211
aI350
aI8
aI297
aI72
aI25
aI269
aI302
aI129
aI105
aI12
aI247
aI3
aI0
aI263
aI57
aI235
aI268
aI66
aI172
aI220
aI3
aI0
aI0
aI327
aI347
aI249
aI183
aI295
aI132
aI52
aI257
aI339
aI17
aI112
aI128
aI64
aI269
aI104
aI297
aI247
aI305
aI11
aI7
aI62
aI13
aI309
aI63
aI351
aI281
aI348
aI242
aI287
aI252
aI278
aI57
aI256
aI19
aI228
aI0
aI5
aI355
aI321
aI268
aI12
aI297
aI317
aI16
aI292
aI114
aI257
aI108
aI338
aI80
aI48
aI261
aI39
aI228
aI57
aI253
aI268
aI96
aI263
aI309
aI75
aI329
aI45
aI237
aI321
aI287
aI325
aI341
aI87
aI186
aI301
aI262
aI52
aI319
aI247
aI9
aI42
aI292
aI75
aI310
aI3
aI262
aI12
aI270
aI352
aI82
aI40
aI89
aI1
aI264
aI39
aI325
aI356
aI294
aI205
aI322
aI339
aI240
aI285
aI105
aI322
aI76
aI72
aI45
aI317
aI8
aI7
aI247
aI324
aI338
aI252
aI172
aI9
aI325
aI326
aI7
aI28
aI116
aI44
aI67
aI263
aI315
aI266
aI67
aI268
aI72
aI240
aI75
aI166
aI179
aI115
aI223
aI115
aI62
aI41
aI76
aI197
aI176
aI315
aI49
aI312
aI282
aI3
aI280
aI56
aI347
aI350
aI354
aI245
aI100
aI274
aI104
aI135
aI327
aI247
aI338
aI252
aI36
aI137
aI73
aI320
aI272
aI197
aI69
aI43
aI72
aI254
aI308
aI51
aI259
aI222
aI222
aI50
aI36
aI71
aI104
aI284
aI211
aI179
aI28
aI70
aI282
aI72
aI290
aI359
aI80
aI12
aI279
aI67
aI57
aI74
aI273
aI239
aI80
aI68
aI29
aI347
aI333
aI26
aI111
aI345
aI247
aI335
aI119
aI102
aI9
aI61
aI281
aI66
asS'motorbike'
p8
(lp9
I75
aI93
aI61
aI85
aI10
aI257
aI292
aI120
aI236
aI73
aI0
aI16
aI19
aI43
aI352
aI323
aI19
aI25
aI118
aI58
aI33
aI15
aI17
aI269
aI128
aI48
aI46
aI4
aI47
aI38
aI297
aI274
aI131
aI268
aI52
aI183
aI180
aI17
aI327
aI222
aI268
aI34
aI303
aI304
aI297
aI180
aI295
aI205
aI34
aI218
aI276
aI52
aI67
aI343
aI306
aI75
aI244
aI319
aI127
aI28
aI304
aI63
aI59
aI54
aI50
aI87
aI75
aI22
aI26
aI0
aI319
aI323
aI7
aI2
aI209
aI233
aI196
aI114
aI255
aI238
aI224
aI0
aI267
aI92
aI247
aI332
aI355
aI5
aI6
aI0
aI270
aI258
aI321
aI307
aI122
aI222
aI269
aI20
aI310
aI236
aI282
aI260
aI34
aI314
aI292
aI42
aI115
aI92
aI308
aI125
aI133
aI330
aI315
aI107
aI2
aI72
aI75
aI264
aI62
aI155
aI138
aI214
aI83
aI312
aI28
aI82
aI312
aI101
aI243
aI192
aI95
aI65
aI42
aI297
aI265
aI88
aI102
aI197
aI160
aI214
aI216
aI30
aI30
aI30
aI29
aI67
aI345
aI312
aI130
aI87
aI90
aI176
aI74
aI107
aI218
aI122
aI1
aI260
aI186
aI274
aI196
aI292
aI213
aI310
aI317
aI37
aI262
aI0
aI108
aI237
aI39
aI255
aI205
aI181
aI157
aI209
aI183
aI252
aI280
aI6
aI39
aI325
aI13
aI200
aI54
aI300
aI210
aI199
aI293
aI115
aI41
aI56
aI58
aI228
aI85
aI103
aI48
aI264
aI246
aI264
aI263
aI286
aI105
aI99
aI246
aI233
aI32
aI105
aI175
aI67
aI225
aI340
aI13
aI20
aI225
aI42
aI92
aI252
aI66
aI66
aI76
aI317
aI358
aI354
aI292
aI5
aI130
aI345
aI242
aI347
aI48
aI122
aI47
aI21
aI67
aI21
aI30
aI149
aI57
aI181
aI85
aI107
aI104
aI331
aI36
aI286
aI137
aI3
aI60
aI20
aI129
aI124
aI128
aI24
aI335
aI88
aI269
aI102
aI85
aI24
aI345
aI359
aI1
aI2
aI42
aI55
aI98
aI77
aI32
aI314
aI152
aI18
aI15
aI27
aI18
aI145
aI67
aI67
aI310
aI345
aI290
aI0
aI30
aI37
aI234
aI146
aI28
aI141
aI58
aI79
aI300
aI312
aI230
aI85
aI70
aI58
aI329
aI4
aI252
aI358
aI74
aI250
aI349
aI307
aI282
aI292
aI213
aI112
aI119
aI302
aI108
aI209
aI54
aI52
aI1
aI278
aI267
aI326
aI37
aI69
aI238
aI249
aI149
aI47
aI2
aI97
aI262
aI77
aI129
aI150
aI174
aI276
aI230
aI274
aI234
aI326
aI0
aI243
aI251
aI87
aI277
aI359
aI340
aI313
aI230
aI221
aI282
aI165
aI154
aI153
aI138
aI311
aI299
aI244
aI269
aI292
aI156
aI0
aI260
aI357
aI238
aI87
aI275
aI265
aI292
aI290
aI328
aI0
aI354
aI350
aI200
aI164
aI262
aI112
aI246
aI71
aI1
aI340
aI59
aI178
aI127
aI19
aI17
aI9
aI341
aI265
aI38
aI9
aI0
aI297
aI321
aI77
aI126
aI252
aI336
aI185
aI334
aI317
aI302
aI272
aI179
aI355
aI272
aI283
aI306
aI100
aI107
aI265
aI131
aI6
aI345
aI327
aI334
aI23
aI125
aI180
aI170
aI287
aI328
aI146
aI13
aI315
aI107
aI303
aI146
aI292
aI253
aI326
aI318
aI35
aI217
aI278
aI77
aI253
aI0
aI0
aI357
aI324
aI62
aI352
aI343
aI276
aI236
aI40
aI260
aI31
aI311
aI298
aI256
aI36
aI0
aI310
aI272
aI103
aI17
aI333
aI125
aI47
aI227
aI41
aI349
aI67
aI287
aI324
aI22
aI129
aI344
aI40
aI248
aI137
aI101
aI127
aI310
aI0
aI253
aI241
aI57
aI274
aI93
aI87
aI332
aI47
aI97
aI159
aI62
aI56
aI10
aI14
aI302
aI315
aI17
aI319
aI150
aI325
aI49
aI167
aI156
aI97
aI143
aI45
aI300
aI207
aI235
aI247
aI332
aI272
aI67
aI94
aI333
aI138
aI72
aI254
aI39
aI318
aI323
aI329
aI226
aI355
aI116
aI328
aI0
aI299
aI250
aI67
aI47
aI7
aI265
aI331
aI75
aI89
aI39
aI47
aI311
aI313
aI342
aI326
aI1
aI127
aI353
aI308
aI349
aI303
aI138
aI315
aI107
aI0
aI240
aI332
aI350
aI268
aI313
aI53
aI57
aI103
aI277
aI321
aI292
aI346
aI225
aI132
aI149
aI267
aI44
aI37
aI312
aI62
aI135
aI49
aI128
aI0
aI292
aI330
aI187
aI287
aI318
aI316
aI192
aI300
aI308
aI30
aI282
aI222
aI25
aI81
aI312
aI292
aI225
aI101
aI314
aI78
aI308
aI0
aI237
aI68
aI89
aI124
aI319
aI159
aI57
aI62
aI337
aI116
aI75
aI220
aI0
aI324
aI148
aI272
aI237
aI0
aI240
aI265
aI112
aI314
aI271
aI352
aI234
aI322
aI345
aI343
aI297
aI273
aI247
aI21
aI218
aI84
aI39
aI312
aI341
aI8
aI329
aI277
aI88
aI157
aI282
aI253
aI90
aI302
aI92
aI72
aI33
aI272
aI316
aI21
aI126
aI107
aI337
aI137
aI130
aI24
aI78
aI62
aI257
aI316
aI74
aI114
aI67
aI31
aI57
aI348
aI321
aI359
aI4
aI5
aI323
aI122
aI336
aI337
aI354
aI282
aI266
aI52
aI350
aI8
aI230
aI103
aI188
aI31
aI51
aI316
aI57
aI0
aI0
aI322
aI138
aI355
aI270
aI41
aI97
aI67
aI300
aI42
aI0
aI331
aI293
aI308
aI24
aI114
aI56
aI303
aI315
aI101
aI42
aI73
aI247
aI112
aI321
aI327
aI41
aI350
aI67
aI268
aI52
aI0
aI359
aI169
aI351
aI311
aI51
aI316
aI27
aI319
aI305
aI0
aI67
aI335
aI60
aI318
aI37
aI295
aI86
aI23
aI286
aI122
aI67
aI303
aI347
aI56
aI101
aI333
aI47
aI47
aI272
aI0
aI82
aI22
aI325
aI82
aI347
aI268
aI120
aI125
aI85
aI133
aI31
aI258
aI303
aI78
aI0
aI67
aI239
aI341
aI295
aI37
aI0
aI70
aI200
aI305
aI289
aI270
aI261
aI339
aI92
aI322
aI20
aI285
aI38
aI302
aI178
aI357
aI302
aI323
aI305
aI247
aI247
aI54
aI330
aI302
aI28
aI67
aI234
aI32
aI165
aI23
aI295
aI340
aI319
aI257
aI202
aI0
aI42
aI70
aI332
aI31
aI283
aI87
aI52
aI117
aI126
aI305
aI326
aI247
aI316
aI97
aI181
aI251
aI327
aI62
aI256
aI357
aI4
aI112
aI317
aI252
aI73
aI121
aI238
aI331
aI303
aI245
aI87
aI54
aI332
aI277
aI354
aI279
aI42
aI87
aI142
aI299
aI51
aI29
aI61
aI341
aI23
aI0
aI314
aI287
aI340
aI307
aI317
aI171
aI186
aI175
aI154
aI318
aI210
aI38
aI47
aI150
aI0
aI73
aI267
aI243
aI297
aI305
aI104
aI265
aI37
aI318
aI58
aI270
aI72
aI41
aI325
aI317
aI65
aI182
aI117
aI15
aI181
aI27
aI311
aI53
aI43
aI107
aI29
aI15
aI9
aI158
aI318
aI291
aI285
aI235
aI316
aI322
aI306
aI8
aI319
aI40
aI24
aI68
aI112
aI84
aI272
aI272
aI242
aI287
aI322
aI277
aI282
aI332
aI327
aI60
aI331
aI343
aI351
aI131
aI157
aI120
aI87
aI87
aI18
aI307
aI80
aI323
aI68
aI247
aI325
aI287
aI283
aI284
aI14
aI305
aI43
aI316
aI64
aI7
aI52
aI6
aI252
aI112
aI287
aI28
aI332
aI308
aI345
aI192
aI0
aI0
aI19
aI70
aI35
aI289
aI21
aI344
aI122
aI249
aI142
aI61
aI262
aI310
aI4
aI265
aI73
aI112
aI301
aI112
aI43
aI21
aI47
aI290
aI99
aI185
aI321
aI22
aI115
aI25
aI17
aI267
aI332
aI77
aI337
aI134
aI316
aI320
aI0
aI98
aI10
aI257
aI62
aI330
aI292
aI264
aI164
aI287
aI252
aI39
aI43
aI270
aI222
aI262
aI59
aI32
aI316
aI282
aI309
aI64
aI12
aI120
aI142
aI296
aI352
aI277
aI19
aI286
aI48
aI299
aI15
aI336
aI0
aI347
aI134
aI344
aI53
aI312
aI262
aI98
aI323
aI297
aI77
aI292
aI82
aI29
aI321
aI334
aI268
aI117
aI69
aI263
aI315
aI166
aI76
aI64
aI57
aI42
aI313
aI312
aI90
aI262
aI11
aI34
aI117
aI337
aI64
aI307
aI32
aI33
aI232
aI45
aI76
aI13
aI324
aI62
aI120
aI303
aI25
aI285
aI75
aI62
aI228
aI32
aI272
aI36
aI319
aI332
aI227
aI322
aI312
aI190
aI317
aI276
aI27
aI202
aI193
aI270
aI342
aI242
aI272
aI314
aI59
aI318
aI112
aI244
aI202
aI292
aI352
aI3
aI349
aI222
aI191
aI84
aI71
aI94
aI319
aI282
aI73
aI51
aI84
aI87
aI338
aI34
aI54
aI338
aI320
aI56
aI100
aI320
aI190
aI319
aI306
aI65
aI131
aI198
aI37
aI8
aI143
aI97
aI145
aI236
aI220
aI339
aI22
aI282
aI104
aI242
aI147
aI137
aI61
aI43
aI302
aI210
aI228
aI256
aI16
aI267
aI0
aI273
aI224
aI27
aI15
aI32
aI261
aI319
aI282
aI35
aI270
aI350
aI63
aI318
aI267
aI254
aI313
aI269
aI300
aI55
aI158
aI0
aI180
aI7
aI307
aI299
aI50
aI247
aI292
aI282
aI45
aI29
aI41
aI297
aI269
aI51
aI165
aI248
aI220
aI56
aI42
aI26
aI116
aI44
aI20
aI346
aI192
aI193
aI128
aI247
aI246
aI270
aI335
aI188
aI324
aI252
aI308
aI67
aI317
aI71
aI329
aI310
aI322
aI142
aI11
aI48
aI321
aI90
aI310
aI325
aI299
aI24
aI261
aI21
aI339
aI349
aI292
aI251
aI294
aI62
aI106
aI27
aI9
aI65
aI136
aI321
aI47
aI350
aI103
aI287
aI63
aI339
aI82
aI278
aI13
aI185
aI202
aI221
aI126
aI238
aI77
aI0
aI246
aI26
aI320
aI252
aI325
aI327
aI179
aI334
aI287
aI29
aI218
aI0
aI338
aI111
aI139
aI85
aI317
aI0
aI227
aI320
aI336
aI64
aI47
aI205
aI247
aI212
aI28
aI330
aI289
aI218
aI230
aI332
aI73
aI169
aI61
aI99
aI232
aI100
aI82
aI19
aI222
aI26
aI46
aI277
aI30
aI266
aI332
aI37
aI241
aI122
aI36
aI91
aI278
aI351
aI242
aI295
aI83
aI296
aI351
aI277
aI139
aI35
aI93
aI287
aI48
aI275
aI170
aI33
aI224
aI350
aI2
aI28
aI57
aI259
aI335
aI25
aI39
aI73
aI247
aI77
aI326
aI330
aI102
aI94
aI349
aI42
aI142
aI237
aI232
aI80
aI256
aI282
aI51
aI294
aI32
aI89
aI306
aI37
aI68
aI308
aI151
aI270
aI28
aI238
aI247
aI233
aI21
aI145
aI243
aI0
aI345
aI318
aI291
aI62
aI308
aI115
aI311
aI88
aI242
aI279
aI15
aI112
aI75
aI57
aI77
aI6
aI31
aI277
aI8
aI117
aI95
aI355
aI0
aI14
aI92
aI36
aI170
aI328
aI334
aI262
aI32
aI321
aI338
aI203
aI10
aI112
aI317
aI4
aI324
aI242
aI13
aI242
aI62
aI3
aI353
aI215
aI59
aI28
aI258
aI251
aI248
aI22
aI282
aI97
aI329
aI332
aI269
aI37
aI292
aI342
aI38
aI257
aI172
aI216
aI346
aI238
aI47
aI61
aI247
aI50
aI28
aI210
aI137
aI322
aI112
aI329
aI77
aI32
aI48
aI60
aI6
aI48
aI294
aI72
aI299
aI212
aI319
aI21
aI199
aI315
aI101
aI55
aI49
aI62
aI225
aI324
aI82
aI326
aI57
aI164
aI37
aI349
aI226
aI68
aI247
aI29
aI235
aI61
aI255
aI200
aI237
aI359
aI98
aI346
aI277
aI283
aI182
aI247
aI165
aI37
aI241
aI293
aI320
aI33
aI33
aI230
aI103
aI2
aI191
aI87
aI258
aI295
aI112
aI77
aI237
aI70
aI249
aI34
aI31
aI210
aI272
aI300
aI80
aI67
aI3
aI90
aI307
aI332
aI239
aI331
aI34
aI35
aI72
aI24
aI82
aI56
aI60
aI14
aI3
aI215
aI207
aI199
aI150
aI313
aI18
aI292
aI338
aI313
aI300
aI317
aI330
aI259
aI320
aI1
aI97
aI47
aI270
aI124
aI8
aI337
aI82
aI315
aI250
aI0
aI331
aI313
aI317
aI319
aI330
aI107
aI268
aI273
aI247
aI270
aI33
aI108
aI281
aI124
aI287
aI37
aI325
aI77
aI4
aI260
aI251
aI66
aI258
aI122
aI340
aI161
aI78
aI52
aI260
aI333
aI242
aI297
aI194
aI279
aI60
aI318
aI16
aI76
aI293
aI282
aI297
aI292
aI306
aI124
aI312
aI267
aI222
aI19
aI317
aI342
aI70
aI146
aI319
aI331
aI127
aI132
aI44
aI282
aI322
aI34
aI205
aI252
aI0
aI156
aI126
aI63
aI33
aI120
aI65
aI272
aI271
aI296
aI329
aI112
aI10
aI126
aI244
aI328
aI23
aI84
aI96
aI29
aI174
aI272
aI111
aI92
aI290
aI123
aI262
aI239
asS'cow'
p10
(lp11
sS'sofa'
p12
(lp13
I30
aI95
aI273
aI10
aI32
aI330
aI340
aI335
aI335
aI315
aI80
aI0
aI5
aI275
aI15
aI70
aI0
aI320
aI10
aI0
aI8
aI21
aI309
aI339
aI265
aI34
aI355
aI26
aI0
aI0
aI330
aI37
aI0
aI265
aI85
aI0
aI345
aI283
aI185
aI58
aI205
aI310
aI275
aI110
aI22
aI5
aI0
aI351
aI285
aI276
aI22
aI75
aI58
aI76
aI335
aI80
aI10
aI329
aI260
aI347
aI7
aI350
aI30
aI13
aI21
aI0
aI175
aI1
aI342
aI37
aI15
aI230
aI26
aI340
aI30
aI40
aI0
aI317
aI0
aI6
aI36
aI328
aI28
aI288
aI62
aI210
aI310
aI350
aI182
aI6
aI8
aI25
aI319
aI0
aI3
aI47
aI298
aI68
aI282
aI22
aI245
aI327
aI20
aI0
aI290
aI0
aI265
aI275
aI47
aI328
aI65
aI65
aI3
aI350
aI60
aI50
aI310
aI325
aI95
aI45
aI0
aI299
aI0
aI328
aI80
aI330
aI37
aI36
aI314
aI2
aI5
aI309
aI22
aI351
aI46
aI337
aI36
aI69
aI16
aI300
aI320
aI88
aI313
aI1
aI84
aI0
aI5
aI0
aI0
aI150
aI27
aI10
aI75
aI75
aI92
aI309
aI359
aI19
aI343
aI0
aI20
aI35
aI3
aI5
aI320
aI315
aI120
aI0
aI73
aI6
aI355
aI0
aI0
aI0
aI10
aI196
aI310
aI240
aI121
aI57
aI57
aI18
aI10
aI9
aI20
aI17
aI325
aI24
aI195
aI0
aI265
aI35
aI10
aI302
aI8
aI301
aI103
aI242
aI25
aI75
aI14
aI62
aI58
aI5
aI307
aI313
aI255
aI255
aI335
aI185
aI15
aI345
aI322
aI22
aI0
aI5
aI344
aI55
aI24
aI105
aI0
aI15
aI1
aI271
aI77
aI282
aI61
aI0
aI342
aI345
aI57
aI2
aI126
aI75
aI3
aI5
aI0
aI38
aI32
aI10
aI359
aI7
aI49
aI0
aI180
aI0
aI292
aI353
aI160
aI15
aI278
aI270
aI337
aI323
aI105
aI46
aI23
aI105
aI115
aI30
aI9
aI0
aI105
aI312
aI121
aI265
aI0
aI0
aI322
aI48
aI278
aI265
aI252
aI332
aI317
aI250
aI345
aI35
aI6
aI59
aI85
aI305
aI35
aI337
aI37
aI0
aI303
aI352
aI359
aI263
aI21
aI271
aI68
aI5
aI36
aI355
aI1
aI285
aI0
aI0
aI260
aI22
aI335
aI355
aI10
aI80
aI39
aI43
aI90
aI355
aI0
aI265
aI345
aI36
aI329
aI81
aI355
aI348
aI9
aI0
aI349
aI338
aI0
aI342
aI15
aI0
aI16
aI290
aI5
aI305
aI252
aI22
aI82
aI7
aI325
aI270
aI0
aI0
aI205
aI348
aI155
aI15
aI315
aI289
aI0
aI103
aI0
aI18
aI32
aI100
aI302
aI311
aI38
aI334
aI0
aI280
aI15
aI48
aI312
aI0
aI5
aI305
aI0
aI160
aI245
aI5
aI80
aI0
aI308
aI347
aI0
aI319
aI67
aI260
aI41
aI87
aI14
aI92
aI320
aI71
aI7
aI251
aI358
aI38
aI0
aI266
aI37
aI0
aI180
aI72
aI0
aI2
aI321
aI30
aI87
aI15
aI200
aI52
aI62
aI7
aI295
aI346
aI348
aI354
aI0
aI5
aI0
aI327
aI51
aI0
aI345
aI1
aI63
aI0
aI4
aI17
aI0
aI4
aI323
aI28
aI1
aI338
aI306
aI24
aI357
aI357
aI32
aI1
aI0
aI0
aI0
aI30
aI0
aI131
aI0
aI0
aI0
aI327
aI335
aI4
aI6
aI1
aI356
aI0
aI349
aI0
aI57
aI36
aI324
aI337
aI61
aI5
aI15
aI48
aI23
aI3
aI300
aI27
aI334
aI0
aI316
aI33
aI333
aI0
aI327
aI23
aI337
aI335
aI63
aI316
aI290
aI0
aI70
aI0
aI305
aI29
aI38
aI331
aI43
aI120
aI8
aI0
aI34
aI341
aI21
aI342
aI0
aI0
aI357
aI0
aI38
aI20
aI0
aI0
aI22
aI0
aI0
aI340
aI0
aI5
aI318
aI336
aI2
aI47
aI317
aI43
aI0
aI342
aI60
aI319
aI0
aI45
aI0
aI318
aI12
aI337
aI311
aI341
aI324
aI20
aI12
aI351
aI0
aI61
aI16
aI7
aI312
aI330
aI34
aI0
aI42
aI272
aI138
aI347
aI0
aI0
aI318
aI26
aI23
aI13
aI18
aI296
aI325
aI21
aI317
aI2
aI326
aI23
aI0
aI303
aI15
aI339
aI306
aI0
aI308
aI0
aI0
aI5
aI20
aI0
aI295
aI6
aI13
aI321
aI31
aI0
aI314
aI3
aI338
aI350
aI16
aI3
aI0
aI17
aI325
aI0
aI0
aI0
aI17
aI0
aI344
aI299
aI300
aI350
aI0
aI29
aI0
aI36
aI287
aI0
aI343
aI334
aI58
aI327
aI24
aI31
aI0
aI0
aI327
aI2
aI0
aI24
aI1
aI304
aI0
aI0
aI0
aI301
aI37
aI30
aI0
aI28
aI340
aI2
aI207
aI0
aI349
aI38
aI345
aI3
aI340
aI0
aI10
aI0
aI315
aI3
aI0
aI0
aI15
aI0
aI330
aI37
aI343
aI0
aI9
aI0
aI309
aI29
aI348
aI340
aI0
aI56
aI296
aI340
aI335
aI29
aI0
aI46
aI324
aI0
aI0
aI312
aI0
aI0
aI62
aI336
aI336
aI29
aI18
aI0
aI0
aI341
aI188
aI0
aI10
aI350
aI334
aI51
aI283
aI0
aI311
aI280
aI332
aI4
aI2
aI0
aI0
aI37
aI315
aI0
aI266
aI10
aI0
aI342
aI38
aI8
aI18
aI0
aI304
aI0
aI45
aI335
aI28
aI321
aI335
aI37
aI327
aI0
aI329
aI312
aI25
aI15
aI9
aI21
aI354
aI29
aI0
aI0
aI28
aI359
aI63
aI0
aI0
aI285
aI0
aI305
aI3
aI314
aI20
aI0
aI4
aI4
aI332
aI2
aI312
aI307
aI341
aI344
aI0
aI0
aI68
aI343
aI265
aI349
aI297
aI359
aI3
aI5
aI0
aI53
aI0
aI0
aI356
aI326
aI18
aI0
aI0
aI10
aI359
aI17
aI28
aI0
aI0
aI16
aI347
aI0
aI315
aI332
aI39
aI49
aI329
aI0
aI324
aI34
aI13
aI0
aI0
aI10
aI328
aI29
aI339
aI2
aI305
aI26
aI0
aI0
aI0
aI321
aI34
aI0
aI0
aI0
aI342
aI342
aI339
aI332
aI32
aI317
aI2
aI0
aI6
aI350
aI49
aI347
aI334
aI348
aI0
aI319
aI14
aI1
aI59
aI333
aI0
aI314
aI45
aI109
aI14
aI327
aI29
aI0
aI285
aI324
aI0
aI326
aI54
aI339
aI355
aI22
aI24
aI0
aI321
aI0
aI0
aI338
aI34
aI238
aI0
aI338
aI2
aI3
aI277
aI272
aI28
aI2
aI331
aI56
aI0
aI0
aI0
aI0
aI342
aI31
aI338
aI28
aI33
aI333
aI42
aI0
aI22
aI344
aI0
aI0
aI328
aI52
aI0
aI185
aI2
aI0
aI336
aI0
aI9
aI327
aI50
aI351
aI0
aI37
aI0
aI319
aI29
aI320
aI0
aI332
aI352
aI0
aI10
aI0
aI317
aI38
aI341
aI355
aI0
aI330
aI290
aI1
aI342
aI0
aI46
aI65
aI323
aI10
aI0
aI0
aI0
aI346
aI45
aI126
aI327
aI54
aI26
aI0
aI343
aI344
aI346
aI29
aI0
aI0
aI359
aI0
aI309
aI42
aI347
aI333
aI298
aI23
aI338
aI0
aI249
aI11
aI325
aI15
aI346
aI0
aI0
aI335
aI27
aI346
aI351
aI3
aI341
aI9
aI336
aI300
aI326
aI50
aI0
aI0
aI1
aI332
aI56
aI157
aI7
aI0
aI21
aI351
aI0
aI4
aI328
aI0
aI0
aI322
aI303
aI13
aI338
aI0
aI0
aI338
aI353
aI0
aI42
aI330
aI305
aI5
aI331
aI0
aI322
aI322
aI24
aI340
aI32
aI337
aI48
aI0
aI30
aI0
aI338
aI1
aI0
aI0
aI325
aI283
aI0
aI2
aI23
aI353
aI312
aI0
aI330
aI24
aI330
aI9
aI0
aI328
aI154
aI0
aI20
aI44
aI0
aI311
aI28
aI350
aI8
aI329
aI52
aI2
aI320
aI52
aI337
aI308
aI0
aI355
aI10
aI2
aI52
aI323
aI323
aI0
aI60
aI337
aI22
aI27
aI15
aI322
aI11
aI0
aI9
aI0
aI7
aI0
aI331
aI57
aI322
aI354
aI7
aI39
aI308
aI323
aI0
aI0
aI318
aI0
aI318
aI46
aI0
aI0
aI307
aI8
aI322
aI39
aI83
aI4
aI0
aI6
aI288
aI1
aI0
aI0
aI35
aI312
aI24
aI350
aI9
aI0
aI348
aI35
aI0
aI11
aI0
aI353
aI0
aI330
aI4
aI81
aI0
aI0
aI321
aI25
aI334
aI60
aI0
aI1
aI14
aI4
aI49
aI3
aI332
aI0
aI0
aI343
aI327
aI46
aI37
aI25
aI1
aI0
aI336
aI0
aI330
aI314
aI19
aI15
aI321
aI0
aI0
aI28
aI339
aI3
aI332
aI0
aI3
aI0
aI3
aI26
aI341
aI0
aI26
aI344
aI348
aI318
aI323
aI11
aI25
aI14
aI312
aI11
aI6
aI339
aI300
aI3
aI33
aI61
aI17
aI355
aI19
aI0
aI14
aI333
aI50
aI11
aI24
aI0
aI309
aI60
aI20
aI0
aI355
aI36
aI333
aI33
aI35
aI72
aI33
aI25
aI345
aI54
aI330
aI17
aI21
aI304
aI30
aI319
aI1
aI0
aI0
aI325
aI26
aI0
aI0
aI0
aI0
aI1
aI2
aI0
aI331
aI16
aI326
aI34
aI0
aI8
aI47
aI2
aI0
aI344
aI322
aI0
aI0
aI0
aI3
aI0
aI0
aI0
aI0
aI2
aI0
aI49
aI14
aI332
aI59
aI350
aI16
aI1
aI0
aI324
aI320
aI33
aI15
aI15
aI334
aI47
aI317
aI0
aI29
aI313
aI37
aI0
aI326
aI317
aI38
aI0
aI0
aI28
aI345
aI8
aI0
aI46
aI347
aI42
aI13
aI0
aI0
aI0
aI0
aI336
aI328
aI19
aI0
aI339
aI312
aI0
aI340
aI0
aI0
aI12
aI5
aI26
aI0
aI0
aI2
aI0
aI90
aI0
aI0
aI11
aI18
aI330
aI0
aI52
aI52
aI349
aI0
aI305
aI347
aI0
aI0
aI0
aI345
aI2
aI0
aI0
aI29
aI3
aI5
aI1
aI2
aI349
aI61
aI342
aI0
aI0
aI292
aI9
aI311
aI0
aI327
aI16
aI53
aI322
aI0
aI324
aI17
aI312
aI0
aI296
aI1
aI322
aI351
aI344
aI0
aI21
aI327
aI0
aI27
aI338
aI56
aI0
aI291
aI312
aI10
aI308
aI34
aI344
aI0
aI1
aI0
aI47
aI38
aI0
aI46
aI330
aI0
aI322
aI48
aI0
aI46
aI322
aI49
aI24
aI359
aI314
aI33
aI226
aI39
aI2
aI0
aI334
aI0
aI331
aI315
aI359
aI67
aI150
aI270
aI32
aI9
aI0
aI40
aI350
aI327
aI50
aI17
aI1
aI349
aI0
aI0
aI355
aI37
aI20
aI295
aI19
aI163
aI325
aI44
aI0
aI17
aI21
aI0
aI353
aI40
aI2
aI304
aI43
aI82
aI7
aI312
aI2
aI1
aI327
aI327
aI0
aI32
aI349
aI286
aI346
aI330
aI52
aI0
aI4
aI0
aI4
aI319
aI9
aI0
aI3
aI0
aI0
aI348
aI0
aI347
aI0
aI0
aI42
aI325
aI23
aI6
aI42
aI326
aI0
aI5
aI310
aI2
aI42
aI134
aI0
aI35
aI319
aI55
aI306
aI341
aI0
aI308
aI19
aI0
aI0
aI0
aI45
aI36
aI6
aI91
aI47
aI16
aI343
aI4
aI351
aI334
aI0
aI345
aI47
aI0
aI327
aI13
aI1
aI27
aI347
aI12
aI0
aI341
aI334
aI0
aI0
aI0
aI26
aI348
aI27
aI329
aI55
aI322
aI313
aI5
aI58
aI0
aI3
aI0
aI304
aI31
aI1
aI9
aI352
aI0
aI0
aI0
aI7
aI0
aI0
aI350
aI44
aI27
aI316
aI23
aI13
aI339
aI0
aI322
aI43
aI36
aI0
aI11
aI0
aI5
aI20
aI10
aI28
aI13
aI350
aI0
aI20
aI333
aI20
aI315
aI17
aI0
aI324
aI36
aI356
aI327
aI0
aI1
aI0
aI0
aI39
aI0
aI0
aI301
aI0
aI0
aI348
aI42
aI346
aI1
aI0
aI346
aI13
aI93
aI321
aI0
aI1
aI330
aI0
aI0
aI4
aI331
aI24
aI125
aI1
aI0
aI311
aI0
aI315
aI299
aI36
aI322
aI16
aI0
aI1
aI321
aI339
aI333
aI297
aI22
aI47
aI0
aI0
aI42
aI310
aI43
aI68
aI6
aI348
aI347
aI9
aI330
aI7
aI0
aI46
aI3
aI3
aI0
aI0
aI0
aI0
aI8
aI22
aI347
aI2
aI78
aI328
aI35
aI8
aI0
aI0
aI281
aI25
aI340
aI61
aI22
aI332
aI47
aI336
aI324
aI12
aI0
aI8
aI326
aI0
aI0
aI58
aI13
aI297
aI5
aI28
aI324
aI20
aI48
aI25
aI341
aI12
aI0
aI347
aI0
aI26
aI0
aI0
aI23
aI335
aI14
aI4
aI0
aI322
aI53
aI0
aI60
aI0
aI3
aI0
aI0
aI9
aI348
aI0
aI331
aI0
aI0
aI352
aI332
aI2
aI309
aI347
aI319
aI325
aI42
aI32
aI85
aI33
aI0
aI352
aI13
aI311
aI25
aI310
aI3
aI0
aI316
aI0
aI0
aI0
aI8
aI3
aI323
aI31
aI315
aI25
aI337
aI0
aI356
aI42
aI45
aI0
aI351
aI0
aI359
aI3
aI0
aI0
aI20
aI348
aI321
aI351
aI55
aI334
aI315
aI39
aI0
aI317
aI336
aI268
aI336
aI345
aI37
aI0
aI2
aI0
aI12
aI308
aI8
aI0
aI329
aI343
aI340
aI2
aI336
aI9
aI3
aI46
aI334
aI42
aI33
aI0
aI5
aI345
aI0
aI19
aI320
aI0
aI293
aI0
aI0
aI357
aI0
aI4
aI0
aI29
aI337
aI316
aI1
aI0
aI55
aI296
aI0
aI327
aI25
aI3
aI337
aI5
aI2
aI32
aI312
aI259
aI317
aI69
aI349
aI344
aI343
aI26
aI316
aI348
aI0
aI44
aI307
aI21
aI316
aI6
aI12
aI30
aI0
aI24
aI335
aI41
aI122
aI5
aI7
aI0
aI52
aI312
aI14
aI56
aI297
aI0
aI16
aI0
aI0
aI322
aI25
aI326
aI350
aI337
aI9
aI340
aI292
aI331
aI0
aI329
aI28
aI120
aI338
aI325
aI326
aI37
aI31
aI329
aI2
aI359
aI0
aI295
aI20
aI14
aI327
aI54
aI0
aI333
aI322
aI52
aI0
aI325
aI331
aI319
aI16
aI1
aI0
aI27
aI243
aI39
aI0
aI0
aI0
aI27
aI45
aI351
aI0
aI16
aI0
aI31
aI37
aI339
aI42
aI0
aI329
aI0
aI0
aI343
aI24
aI0
aI335
aI316
aI10
aI302
aI51
aI57
aI101
aI21
aI296
aI338
aI0
aI328
aI14
aI42
aI345
aI26
aI0
aI0
aI24
aI52
aI338
aI317
aI39
aI336
aI0
aI324
aI35
aI250
aI15
asS'aeroplane'
p14
(lp15
I270
aI239
aI46
aI167
aI0
aI179
aI59
aI101
aI308
aI330
aI94
aI229
aI240
aI101
aI268
aI90
aI157
aI340
aI170
aI330
aI277
aI61
aI75
aI158
aI159
aI0
aI230
aI106
aI73
aI59
aI30
aI243
aI0
aI284
aI270
aI336
aI22
aI74
aI65
aI308
aI20
aI355
aI83
aI75
aI270
aI26
aI133
aI62
aI131
aI67
aI269
aI55
aI60
aI0
aI296
aI176
aI60
aI52
aI250
aI0
aI117
aI129
aI281
aI263
aI248
aI96
aI277
aI109
aI101
aI97
aI122
aI119
aI302
aI140
aI312
aI137
aI302
aI283
aI26
aI72
aI67
aI0
aI302
aI112
aI119
aI205
aI270
aI10
aI209
aI230
aI221
aI300
aI58
aI128
aI139
aI33
aI32
aI338
aI195
aI101
aI280
aI35
aI22
aI37
aI325
aI52
aI106
aI281
aI297
aI112
aI261
aI244
aI232
aI234
aI241
aI153
aI174
aI184
aI179
aI166
aI25
aI17
aI7
aI270
aI109
aI236
aI124
aI101
aI82
aI90
aI292
aI227
aI324
aI273
aI133
aI106
aI315
aI282
aI282
aI282
aI282
aI282
aI282
aI282
aI282
aI156
aI51
aI2
aI277
aI66
aI212
aI262
aI203
aI160
aI170
aI51
aI46
aI317
aI252
aI180
aI190
aI354
aI28
aI291
aI109
aI75
aI67
aI260
aI39
aI34
aI242
aI265
aI182
aI75
aI327
aI306
aI21
aI22
aI25
aI29
aI24
aI26
aI26
aI25
aI26
aI334
aI175
aI277
aI137
aI137
aI85
aI301
aI97
aI250
aI118
aI50
aI122
aI45
aI17
aI323
aI340
aI112
aI0
aI280
aI310
aI83
aI268
aI45
aI45
aI336
aI339
aI344
aI345
aI107
aI71
aI98
aI164
aI157
aI242
aI15
aI37
aI10
aI19
aI67
aI10
aI314
aI71
aI90
aI226
aI186
aI80
aI107
aI323
aI195
aI25
aI195
aI223
aI35
aI138
aI135
aI31
aI36
aI97
aI155
aI87
aI47
aI85
aI246
aI47
aI327
aI122
aI84
aI117
aI250
aI260
aI220
aI171
aI351
aI356
aI67
aI37
aI30
aI242
aI41
aI74
aI308
aI244
aI39
aI23
aI16
aI257
aI259
aI280
aI265
aI151
aI112
aI97
aI108
aI242
aI325
aI61
aI77
aI100
aI83
aI165
aI94
aI59
aI74
aI72
aI292
aI315
aI218
aI278
aI50
aI16
aI99
aI279
aI275
aI253
aI46
aI1
aI90
aI292
aI90
aI83
aI302
aI328
aI95
aI333
aI140
aI96
aI351
aI138
aI270
aI214
aI17
aI18
aI139
aI29
aI287
aI11
aI78
aI45
aI314
aI152
aI177
aI124
aI309
aI240
aI281
aI111
aI37
aI47
aI38
aI37
aI112
aI266
aI154
aI356
aI208
aI0
aI148
aI142
aI313
aI158
aI50
aI209
aI277
aI286
aI85
aI97
aI116
aI332
aI330
aI333
aI331
aI343
aI49
aI328
aI19
aI139
aI339
aI205
aI173
aI82
aI352
aI53
aI306
aI70
aI86
aI77
aI202
aI62
aI322
aI9
aI79
aI47
aI45
aI21
aI291
aI57
aI345
aI84
aI283
aI290
aI107
aI49
aI244
aI201
aI199
aI195
aI192
aI289
aI288
aI286
aI90
aI61
aI97
aI82
aI99
aI90
aI0
aI51
aI252
aI341
aI32
aI298
aI44
aI274
aI323
aI305
aI242
aI244
aI325
aI37
aI38
aI179
aI195
aI281
aI235
aI306
aI278
aI79
aI339
aI244
aI43
aI320
aI137
aI72
aI114
aI320
aI90
aI286
aI12
aI212
aI70
aI276
aI95
aI252
aI30
aI225
aI354
aI206
aI233
aI43
aI291
aI285
aI307
aI71
aI233
aI217
aI217
aI217
aI168
aI331
aI311
aI276
aI299
aI234
aI94
aI259
aI249
aI253
aI75
aI287
aI80
aI290
aI358
aI335
aI52
aI83
aI79
aI0
aI310
aI343
aI0
aI18
aI262
aI258
aI283
aI206
aI218
aI153
aI315
aI262
aI27
aI54
aI130
aI266
aI255
aI276
aI304
aI88
aI338
aI268
aI57
aI75
aI350
aI134
aI0
aI57
aI9
aI282
aI85
aI326
aI345
aI97
aI256
aI309
aI288
aI27
aI50
aI262
aI198
aI312
aI324
aI275
aI277
aI29
aI312
aI0
aI339
aI322
aI325
aI274
aI0
aI41
aI209
aI47
aI89
aI38
aI0
aI251
aI263
aI337
aI84
aI0
aI290
aI291
aI83
aI127
aI57
aI269
aI55
aI186
aI326
aI84
aI270
aI19
aI237
aI242
aI143
aI284
aI0
aI67
aI303
aI137
aI267
aI324
aI322
aI142
aI207
aI349
aI156
aI283
aI348
aI294
aI41
aI323
aI347
aI101
aI184
aI264
aI92
aI48
aI22
aI42
aI261
aI0
aI80
aI23
aI78
aI292
aI87
aI73
aI67
aI350
aI343
aI82
aI267
aI290
aI268
aI315
aI45
aI353
aI209
aI55
aI323
aI312
aI257
aI53
aI41
aI2
aI52
aI342
aI202
aI112
aI303
aI34
aI296
aI269
aI0
aI325
aI19
aI0
aI57
aI52
aI68
aI0
aI317
aI281
aI0
aI227
aI24
aI27
aI67
aI141
aI308
aI247
aI334
aI268
aI272
aI46
aI247
aI67
aI223
aI0
aI293
aI266
aI332
aI244
aI283
aI1
aI234
aI0
aI331
aI47
aI302
aI25
aI226
aI78
aI13
aI275
aI275
aI227
aI273
aI48
aI279
aI9
aI252
aI319
aI238
aI331
aI303
aI279
aI26
aI245
aI59
aI344
aI39
aI264
aI258
aI265
aI305
aI0
aI21
aI211
aI257
aI269
aI24
aI343
aI100
aI267
aI50
aI10
aI27
aI344
aI96
aI315
aI293
aI259
aI307
aI308
aI0
aI279
aI264
aI117
aI311
aI95
aI124
aI183
aI257
aI57
aI156
aI84
aI324
aI135
aI87
aI302
aI274
aI272
aI307
aI350
aI305
aI127
aI303
aI67
aI67
aI131
aI32
aI228
aI10
aI113
aI299
aI352
aI97
aI326
aI68
aI125
aI0
aI344
aI274
aI70
aI149
aI259
aI36
aI111
aI270
aI345
aI138
aI342
aI281
aI49
aI344
aI270
aI80
aI99
aI287
aI315
aI17
aI154
aI328
aI97
aI291
aI42
aI315
aI68
aI95
aI44
aI282
aI146
aI194
aI238
aI74
aI359
aI62
aI30
aI257
aI81
aI100
aI233
aI132
aI214
aI107
aI280
aI132
aI35
aI74
aI317
aI251
aI1
aI18
aI95
aI57
aI332
aI345
aI267
aI106
aI261
aI125
aI337
aI268
aI0
aI112
aI287
aI18
aI217
aI320
aI280
aI94
aI252
aI57
aI73
aI275
aI140
aI92
aI297
aI159
aI44
aI292
aI147
aI252
aI149
aI301
aI269
aI329
aI237
aI10
aI6
aI336
aI322
aI137
aI253
aI227
aI107
aI75
aI54
aI91
aI291
aI325
aI1
aI331
aI303
aI0
aI242
aI77
aI229
aI259
aI14
aI258
aI5
aI97
aI50
aI46
aI335
aI6
aI327
aI341
aI271
aI25
aI306
aI72
aI255
aI267
aI329
aI257
aI21
aI152
aI112
aI73
aI82
aI111
aI77
aI220
aI280
aI312
aI328
aI302
aI141
aI23
aI321
aI104
aI47
aI303
aI297
aI70
aI259
aI259
aI35
aI273
aI298
aI285
aI71
aI287
aI53
aI19
aI315
aI12
aI264
aI320
aI0
aI302
aI0
aI77
aI321
aI311
aI54
aI293
aI5
aI97
aI116
aI107
aI75
aI283
aI295
aI231
aI349
aI182
aI317
aI327
aI91
aI277
aI105
aI29
aI78
aI0
aI354
aI333
aI112
aI333
aI270
aI112
aI270
aI149
aI285
aI273
aI0
aI133
aI71
aI87
aI313
aI196
aI92
aI55
aI48
aI59
aI93
aI7
aI330
aI12
aI82
aI194
aI219
aI294
aI112
aI92
aI336
aI309
aI232
aI237
aI106
aI242
aI102
aI39
aI162
aI136
aI282
aI76
aI311
aI112
aI7
aI95
aI261
aI284
aI320
aI27
aI318
aI259
aI62
aI332
aI270
aI100
aI260
aI137
aI37
aI78
aI73
aI35
aI124
aI258
aI346
aI85
aI52
aI57
aI289
aI202
aI97
aI345
aI281
aI327
aI342
aI342
aI64
aI142
aI273
aI281
aI5
aI274
aI39
aI50
aI349
aI0
aI9
aI58
aI4
aI25
aI53
aI320
aI318
aI315
aI278
aI311
aI32
aI347
aI313
aI242
aI310
aI60
aI220
aI312
aI292
aI147
aI45
aI77
aI287
aI97
aI340
aI22
aI96
aI242
aI339
aI179
aI279
aI335
aI257
aI68
aI291
aI249
aI20
aI238
aI231
aI259
aI263
aI12
aI316
aI298
aI342
aI59
aI4
aI72
aI342
aI275
aI310
aI98
aI32
aI73
aI240
aI257
aI72
aI292
aI295
aI328
aI92
aI12
aI72
aI282
aI0
aI0
aI76
aI122
aI100
aI34
aI53
aI267
aI58
aI0
aI289
aI277
aI41
aI262
aI240
aI241
aI277
aI258
aI214
aI254
aI334
aI345
aI95
aI23
aI253
aI14
aI282
aI287
aI3
aI272
aI0
aI22
aI35
aI333
aI331
aI287
aI106
aI342
aI119
aI322
aI54
aI64
aI278
aI23
aI321
aI116
aI237
aI274
aI37
aI55
aI298
aI264
aI146
aI94
aI200
aI46
aI308
aI329
aI304
aI93
aI79
aI296
aI95
aI39
aI195
aI339
aI0
aI335
aI0
aI119
aI329
aI353
aI342
aI43
aI38
aI68
aI157
aI292
aI313
aI344
aI343
aI57
aI16
aI270
aI64
aI22
aI281
aI294
aI201
aI102
aI0
aI96
aI102
aI11
aI87
aI14
aI129
aI286
aI79
aI296
aI315
aI272
aI28
aI295
aI236
aI334
aI23
aI32
aI50
aI133
aI51
aI260
aI305
aI2
aI0
aI100
aI8
aI280
aI34
aI313
aI338
aI64
aI284
aI267
aI68
aI311
aI338
aI230
aI43
aI107
aI8
aI324
aI240
aI187
aI147
aI293
aI53
aI105
aI74
aI103
aI222
aI347
aI167
aI75
aI76
aI333
aI201
aI254
aI31
aI288
aI297
aI341
aI0
aI87
aI229
aI23
aI241
aI36
aI309
aI50
aI99
aI101
aI227
aI262
aI289
aI57
aI79
aI87
aI324
aI37
aI288
aI309
aI90
aI339
aI28
aI303
aI322
aI127
aI164
aI25
aI317
aI0
aI292
aI64
aI104
aI57
aI226
aI314
aI70
aI315
aI285
aI226
aI354
aI66
aI314
aI252
aI333
aI323
aI29
aI355
aI35
aI72
aI142
aI61
aI308
aI50
aI316
aI272
aI41
aI231
aI307
aI327
aI55
aI32
aI77
aI157
aI344
aI5
aI277
aI285
aI353
aI106
aI324
aI31
aI260
aI334
aI28
aI340
aI346
aI306
aI323
aI262
aI37
aI282
aI0
aI285
aI279
aI94
aI280
aI73
aI150
aI77
aI48
aI210
aI31
aI140
aI228
aI64
aI312
aI132
aI255
aI315
aI26
aI96
aI32
aI294
aI79
aI59
aI290
aI264
aI86
aI25
aI333
aI0
aI274
aI88
aI112
aI56
aI12
aI247
aI146
aI306
aI298
aI92
aI204
aI337
aI45
aI73
aI294
aI245
aI332
aI92
aI52
aI72
aI301
aI67
aI54
aI357
aI13
aI67
aI344
aI140
aI17
aI241
aI67
aI191
aI317
aI338
aI23
aI149
aI68
aI4
aI353
aI125
aI24
aI26
aI62
aI34
aI298
aI57
aI64
aI22
aI59
aI256
aI33
aI335
aI325
aI305
aI106
aI329
aI256
aI87
aI287
aI286
aI274
aI32
aI13
aI313
aI39
aI297
aI280
aI256
aI276
aI81
aI113
aI114
aI331
aI338
aI351
aI271
aI282
aI345
aI351
aI357
aI33
aI267
aI359
aI350
aI7
aI305
aI134
aI67
aI0
aI286
aI282
aI241
aI318
aI19
aI327
aI171
aI129
aI20
aI313
aI322
aI77
aI107
aI0
aI250
aI316
aI345
aI179
aI348
aI260
aI284
aI26
aI338
aI272
aI107
aI47
aI167
aI327
aI79
aI270
aI167
aI324
aI91
aI287
aI293
aI101
aI247
aI127
aI277
aI336
aI77
aI312
aI224
aI302
aI0
aI320
aI317
aI83
aI97
aI122
aI219
aI83
aI226
aI336
aI260
aI306
aI310
aI0
aI229
aI65
aI0
aI55
aI273
aI60
aI34
aI47
aI356
aI313
aI310
aI233
aI282
aI268
aI38
aI215
aI228
aI203
aI315
aI182
aI217
aI72
aI236
aI270
aI83
aI36
aI134
aI0
aI160
aI2
aI106
aI34
aI257
aI347
aI52
aI245
aI280
aI331
aI9
aI97
aI282
aI290
aI57
aI313
aI0
aI0
aI312
aI54
aI71
aI91
aI309
aI89
aI344
aI10
aI280
aI135
aI77
aI1
aI321
aI317
aI24
aI297
aI350
aI25
aI93
aI229
aI126
aI194
aI343
aI0
aI37
aI180
aI299
aI326
aI228
aI348
aI335
aI72
aI67
aI308
aI9
aI140
aI0
aI145
aI305
aI39
aI324
aI60
aI238
aI324
aI334
aI195
aI329
aI18
aI131
aI109
aI257
aI310
aI239
aI310
aI43
aI83
aI196
aI122
aI72
aI353
aI251
aI86
aI297
aI33
aI73
aI67
aI329
aI126
aI137
aI269
aI47
aI324
aI59
aI287
aI293
aI87
aI87
aI5
aI77
aI295
aI72
aI12
aI332
aI56
aI248
aI282
aI49
aI47
aI232
aI1
aI312
aI337
aI57
aI274
aI311
aI244
aI155
aI164
aI136
aI292
aI73
aI8
aI304
aI305
aI3
aI301
aI334
aI74
aI92
aI342
aI243
aI0
aI322
aI253
aI72
aI292
aI297
aI127
aI27
aI21
aI119
aI322
aI262
aI57
aI85
aI0
aI16
aI297
aI1
aI155
aI348
aI109
aI47
aI354
aI132
aI63
aI352
aI341
aI47
aI315
aI274
aI284
aI102
aI122
aI26
aI59
aI336
aI121
aI277
aI295
aI266
aI108
aI112
aI1
aI296
aI0
aI58
aI272
aI247
aI43
aI27
aI325
aI311
aI272
aI286
aI2
aI316
aI289
aI42
aI110
aI237
aI259
aI320
aI94
aI103
aI67
aI292
aI56
aI331
aI268
aI322
aI32
aI76
aI317
aI84
aI79
aI9
aI30
aI82
aI264
aI140
aI327
aI43
aI334
aI314
aI42
aI290
aI247
aI13
aI271
aI294
aI0
aI327
aI62
aI270
aI79
aI25
aI37
aI318
aI230
aI2
aI314
aI253
aI343
aI102
aI292
aI89
aI270
aI0
aI37
aI62
aI55
aI331
aI96
aI285
aI7
aI213
aI109
aI40
aI201
aI241
aI305
aI317
aI288
aI7
aI334
aI259
aI243
aI27
aI359
aI150
aI137
aI318
aI107
aI276
aI47
aI273
aI312
aI317
aI282
aI63
aI320
aI122
aI302
aI347
aI85
aI23
aI320
aI226
aI77
aI81
aI0
aI29
aI266
aI319
aI291
aI254
aI11
aI325
aI87
aI146
aI0
aI38
aI0
aI72
aI303
aI299
aI329
aI337
aI88
aI206
aI340
aI37
aI23
aI57
aI131
aI338
aI147
aI252
aI69
aI326
aI47
aI276
aI235
aI165
aI304
aI36
aI22
aI62
aI35
aI293
aI340
aI303
aI102
aI247
aI140
aI46
aI325
aI2
aI295
aI259
aI71
aI25
aI85
aI287
aI12
aI352
aI325
aI319
aI135
aI260
aI47
aI95
aI270
aI264
aI232
aI318
aI9
aI317
aI254
aI120
aI202
aI83
aI47
aI213
aI162
aI0
aI20
aI344
aI325
aI48
aI262
aI67
aI207
aI270
aI246
aI20
aI72
aI256
aI48
aI336
aI29
aI302
aI244
aI48
aI325
aI308
aI312
aI233
aI319
aI317
aI103
aI109
aI262
aI38
aI112
aI266
aI264
aI293
aI46
aI265
aI40
aI281
aI65
aI305
aI47
aI308
aI104
aI303
aI123
aI86
aI311
aI219
aI29
aI307
aI332
aI31
aI37
aI64
aI150
aI322
aI334
aI205
aI357
aI129
aI90
aI262
aI80
aI228
aI160
aI47
aI74
aI341
aI13
aI264
aI120
aI311
aI306
aI49
aI328
aI285
aI261
aI76
aI246
aI295
aI119
aI15
aI257
aI272
aI289
aI89
aI232
aI139
aI296
aI48
aI221
aI344
aI132
aI302
aI105
aI15
aI58
aI61
aI2
aI277
aI287
aI0
aI102
aI306
aI276
aI107
aI34
aI267
aI318
aI112
aI142
aI353
aI0
aI345
aI205
aI25
aI43
aI262
aI26
aI59
aI322
aI152
aI222
aI331
aI318
aI140
aI45
aI298
aI241
aI160
aI15
aI58
aI68
aI162
aI140
aI289
aI355
aI167
aI321
aI93
aI257
aI263
aI320
aI37
aI206
aI107
aI322
aI30
aI277
aI312
aI0
aI239
aI96
aI265
aI68
aI297
aI265
aI85
aI322
aI0
aI18
aI108
aI253
aI292
aI315
aI65
aI294
aI38
aI131
aI191
aI107
aI62
aI321
aI272
aI235
aI322
aI331
aI356
aI285
aI331
aI64
aI304
aI262
aI47
aI331
aI343
aI151
aI197
aI82
aI299
aI135
aI117
aI267
aI276
aI81
aI0
aI95
aI311
aI26
aI245
aI310
aI147
aI38
aI285
aI0
aI98
aI262
aI307
aI24
aI271
aI285
aI244
aI28
aI336
aI81
aI297
aI79
aI52
aI105
aI262
aI111
aI313
aI92
aI290
aI107
aI311
aI277
aI323
aI103
aI145
aI66
aI209
aI261
aI351
aI113
aI245
aI257
aI72
aI197
aI116
aI92
aI242
aI161
aI69
aI224
aI288
aI299
aI329
aI313
aI95
aI292
aI49
aI49
aI318
aI318
aI1
aI216
aI67
aI207
aI54
aI27
aI316
aI51
aI19
aI339
aI212
aI20
aI250
aI123
aI277
aI294
aI197
aI335
aI330
aI309
aI30
aI275
aI110
aI54
aI96
aI271
aI0
aI2
aI217
aI44
aI2
aI102
aI47
aI317
aI42
aI260
aI89
aI277
aI248
aI103
aI263
aI241
aI333
aI201
aI18
aI304
aI93
aI306
aI320
aI1
aI343
aI131
aI112
aI259
aI68
aI233
aI260
aI252
aI0
aI156
aI334
aI153
aI57
aI257
aI138
aI270
aI42
aI315
aI27
aI249
aI314
aI295
aI297
aI295
aI112
aI291
aI328
aI297
aI339
aI264
aI45
aI4
aI67
aI70
aI32
aI180
aI273
aI328
aI295
aI333
aI29
aI62
aI285
aI17
aI127
aI313
aI20
aI70
aI257
aI3
aI204
aI345
aI12
aI47
aI39
aI12
aI272
aI294
aI276
aI286
aI0
aI330
aI146
aI307
aI332
aI82
aI276
aI351
aI97
aI342
aI230
aI260
aI0
aI324
aI99
aI22
aI286
aI276
aI179
aI357
aI277
aI169
aI67
aI221
aI36
aI268
aI275
aI128
aI143
aI359
aI336
aI62
aI23
aI275
aI149
aI50
aI316
aI295
aI319
aI330
aI355
aI213
aI350
aI332
aI1
aI0
aI337
aI37
aI39
aI204
aI256
aI250
aI64
aI274
aI288
aI186
aI267
aI348
aI281
aI289
aI25
aI28
aI295
aI46
aI338
aI352
aI92
aI346
aI324
aI227
aI62
aI62
aI94
aI96
aI320
aI48
aI302
aI69
aI14
aI348
aI270
aI291
aI95
aI317
aI278
aI317
aI277
aI88
aI81
aI277
aI122
aI97
aI0
aI330
aI322
aI267
aI54
aI246
aI312
aI257
aI141
aI255
aI254
aI291
aI16
aI334
aI302
aI300
aI17
aI325
aI55
aI114
aI19
aI284
aI219
aI116
aI256
aI71
aI50
aI83
aI22
aI222
aI285
aI349
aI33
aI41
aI287
aI0
aI324
aI23
aI0
aI247
aI291
aI328
aI340
aI202
aI150
aI19
aI320
aI321
aI17
aI248
aI346
aI349
aI166
aI247
aI136
aI40
aI59
aI200
aI2
aI32
aI0
aI308
aI0
aI27
aI148
aI344
aI243
aI307
aI36
aI92
aI10
aI0
aI336
aI74
aI262
aI298
aI332
aI317
aI98
aI18
aI156
aI236
aI300
aI108
aI232
aI2
aI112
aI40
aI231
aI88
aI108
aI278
aI330
aI37
aI60
aI328
aI110
aI237
aI6
aI49
aI312
aI336
aI0
aI339
aI32
aI104
aI309
aI59
aI22
aI297
aI312
aI81
aI274
aI219
aI197
aI312
aI120
aI22
aI62
aI152
aI101
aI9
aI272
aI99
aI91
aI271
aI306
aI267
aI225
aI82
aI261
asS'dog'
p16
(lp17
sS'bus'
p18
(lp19
I29
aI78
aI344
aI340
aI204
aI230
aI270
aI328
aI335
aI240
aI84
aI9
aI5
aI0
aI6
aI28
aI354
aI20
aI7
aI10
aI262
aI342
aI29
aI218
aI181
aI110
aI270
aI309
aI6
aI339
aI181
aI62
aI125
aI22
aI39
aI13
aI14
aI339
aI203
aI181
aI333
aI270
aI107
aI14
aI29
aI8
aI18
aI186
aI351
aI179
aI185
aI275
aI331
aI328
aI10
aI45
aI66
aI212
aI42
aI170
aI169
aI35
aI22
aI349
aI336
aI237
aI335
aI327
aI352
aI6
aI237
aI346
aI332
aI320
aI334
aI221
aI330
aI349
aI116
aI90
aI29
aI31
aI126
aI339
aI24
aI0
aI330
aI7
aI338
aI19
aI10
aI4
aI9
aI0
aI218
aI345
aI350
aI45
aI339
aI338
aI194
aI190
aI5
aI0
aI199
aI195
aI11
aI54
aI282
aI322
aI43
aI329
aI11
aI181
aI25
aI9
aI15
aI16
aI20
aI24
aI119
aI206
aI300
aI353
aI167
aI327
aI215
aI195
aI214
aI335
aI27
aI186
aI232
aI345
aI348
aI335
aI247
aI284
aI346
aI0
aI268
aI262
aI1
aI22
aI342
aI0
aI332
aI305
aI341
aI207
aI10
aI156
aI180
aI324
aI346
aI350
aI33
aI40
aI25
aI21
aI339
aI343
aI350
aI194
aI29
aI324
aI347
aI20
aI305
aI308
aI350
aI77
aI345
aI167
aI347
aI240
aI147
aI13
aI352
aI0
aI338
aI65
aI25
aI62
aI47
aI325
aI112
aI306
aI250
aI7
aI355
aI19
aI270
aI148
aI174
aI274
aI6
aI0
aI5
aI12
aI185
aI47
aI50
aI70
aI339
aI0
aI323
aI71
aI121
aI312
aI15
aI337
aI343
aI334
aI335
aI320
aI339
aI25
aI328
aI319
aI15
aI190
aI206
aI5
aI87
aI192
aI26
aI270
aI110
aI162
aI29
aI6
aI0
aI1
aI5
aI1
aI352
aI0
aI356
aI314
aI259
aI12
aI0
aI343
aI343
aI16
aI140
aI194
aI260
aI340
aI319
aI207
aI331
aI20
aI319
aI24
aI90
aI347
aI354
aI0
aI323
aI278
aI336
aI340
aI164
aI185
aI185
aI32
aI340
aI14
aI340
aI355
aI351
aI338
aI71
aI52
aI290
aI280
aI256
aI333
aI354
aI6
aI17
aI274
aI196
aI338
aI340
aI14
aI3
aI0
aI0
aI356
aI0
aI0
aI0
aI40
aI343
aI349
aI301
aI5
aI17
aI270
aI106
aI347
aI12
aI237
aI186
aI185
aI185
aI206
aI349
aI349
aI0
aI11
aI340
aI238
aI345
aI347
aI52
aI344
aI189
aI0
aI20
aI349
aI353
aI328
aI346
aI307
aI335
aI5
aI321
aI37
aI322
aI20
aI22
aI336
aI93
aI322
aI19
aI13
aI337
aI16
aI190
aI325
aI17
aI331
aI28
aI24
aI21
aI346
aI10
aI324
aI25
aI322
aI341
aI318
aI24
aI339
aI12
aI212
aI21
aI337
aI15
aI38
aI343
aI71
aI18
aI29
aI181
aI23
aI334
aI158
aI34
aI329
aI339
aI20
aI31
aI327
aI17
aI147
aI247
aI18
aI146
aI340
aI1
aI18
aI340
aI19
aI329
aI192
aI340
aI346
aI346
aI270
aI333
aI159
aI1
aI180
aI24
aI272
aI343
aI15
aI333
aI196
aI21
aI340
aI330
aI21
aI343
aI337
aI13
aI31
aI188
aI341
aI347
aI339
aI212
aI338
aI19
aI19
aI35
aI1
aI157
aI337
aI35
aI160
aI333
aI341
aI340
aI348
aI28
aI51
aI335
aI340
aI11
aI338
aI22
aI21
aI23
aI10
aI345
aI24
aI68
aI185
aI334
aI15
aI316
aI341
aI315
aI338
aI346
aI25
aI53
aI247
aI157
aI19
aI343
aI330
aI340
aI310
aI47
aI31
aI349
aI338
aI92
aI23
aI335
aI5
aI329
aI16
aI23
aI343
aI32
aI0
aI332
aI141
aI24
aI326
aI188
aI320
aI337
aI178
aI334
aI350
aI98
aI180
aI354
aI147
aI18
aI178
aI328
aI25
aI179
aI344
aI341
aI27
aI167
aI333
aI331
aI178
aI328
aI27
aI18
aI42
aI38
aI319
aI34
aI247
aI179
aI192
aI312
aI334
aI344
aI335
aI347
aI23
aI333
aI112
aI347
aI19
aI352
aI345
aI351
aI350
aI20
aI27
aI190
aI14
aI17
aI338
aI33
aI1
aI340
aI27
aI346
aI178
aI342
aI309
aI348
aI20
aI193
aI31
aI21
aI337
aI23
aI179
aI332
aI312
aI343
aI353
aI212
aI344
aI333
aI24
aI326
aI28
aI347
aI337
aI329
aI14
aI32
aI247
aI332
aI19
aI337
aI25
aI329
aI166
aI339
aI15
aI355
aI351
aI149
aI0
aI332
aI21
aI30
aI109
aI330
aI329
aI9
aI336
aI14
aI303
aI347
aI19
aI344
aI159
aI40
aI13
aI27
aI330
aI23
aI333
aI19
aI327
aI12
aI205
aI329
aI320
aI15
aI63
aI345
aI36
aI331
aI7
aI324
aI212
aI11
aI27
aI339
aI328
aI141
aI187
aI6
aI327
aI338
aI340
aI14
aI19
aI10
aI40
aI142
aI337
aI339
aI348
aI4
aI316
aI335
aI21
aI325
aI1
aI69
aI9
aI15
aI33
aI22
aI322
aI16
aI333
aI155
aI168
aI335
aI339
aI1
aI20
aI137
aI189
aI11
aI32
aI321
aI326
aI342
aI35
aI148
aI7
aI343
aI13
aI0
aI31
aI66
aI31
aI18
aI336
aI314
aI18
aI6
aI0
aI344
aI22
aI23
aI6
aI339
aI350
aI319
aI10
aI188
aI326
aI9
aI20
aI0
aI337
aI323
aI210
aI20
aI30
aI150
aI26
aI5
aI330
aI44
aI20
aI31
aI344
aI331
aI21
aI344
aI321
aI349
aI13
aI0
aI342
aI323
aI55
aI296
aI181
aI11
aI0
aI188
aI345
aI16
aI181
aI17
aI25
aI331
aI329
aI34
aI347
aI56
aI339
aI328
aI339
aI28
aI19
aI62
aI11
aI12
aI327
aI178
aI340
aI334
aI17
aI328
aI19
aI338
aI326
aI349
aI332
aI35
aI339
aI343
aI1
aI349
aI19
aI321
aI343
aI195
aI297
aI345
aI174
aI35
aI326
aI342
aI337
aI345
aI343
aI34
aI335
aI25
aI12
aI351
aI35
aI349
aI32
aI34
aI326
aI44
aI342
aI17
aI0
aI93
aI345
aI33
aI333
aI347
aI336
aI26
aI337
aI339
aI341
aI41
aI42
aI180
aI336
aI351
aI326
aI64
aI329
aI338
aI156
aI19
aI165
aI322
aI21
aI150
aI295
aI181
aI323
aI10
aI346
aI34
aI46
aI11
aI336
aI50
aI32
aI204
aI292
aI1
aI330
aI14
aI13
aI13
aI37
aI23
aI336
aI21
aI10
aI354
aI27
aI37
aI32
aI0
aI335
aI22
aI330
aI334
aI329
aI26
aI327
aI348
aI28
aI39
aI325
aI323
aI45
aI344
aI352
aI338
aI348
aI26
aI328
aI343
aI26
aI337
aI76
aI348
aI339
aI32
aI18
aI318
aI342
aI49
aI28
aI335
aI18
aI24
aI112
aI336
aI19
aI313
aI165
aI333
aI348
aI338
aI342
aI12
aI6
aI335
aI21
aI18
aI339
aI341
aI31
aI210
aI35
aI30
aI1
aI349
aI221
aI42
aI26
aI336
aI5
aI331
aI8
aI339
aI41
aI17
aI0
aI121
aI341
aI30
aI12
aI351
aI15
aI330
aI318
aI350
aI331
aI0
aI27
aI15
aI340
aI26
aI332
aI123
aI85
aI178
aI73
aI14
aI1
aI85
aI339
aI344
aI13
aI346
aI173
aI338
aI62
aI204
aI0
aI341
aI118
aI330
aI28
aI9
aI342
aI19
aI339
aI335
aI20
aI7
aI352
aI350
aI111
aI324
aI20
aI333
aI36
aI271
aI30
aI24
aI350
aI343
aI33
aI9
aI339
aI336
aI336
aI208
aI181
aI329
aI351
aI340
aI85
aI310
aI337
aI178
aI197
aI341
aI335
aI327
aI330
aI345
aI11
aI14
aI22
aI330
aI10
aI195
aI178
aI21
aI35
aI324
aI1
aI201
aI0
aI336
aI25
aI1
aI18
aI318
aI149
aI37
aI159
aI0
aI338
aI337
aI348
aI10
aI41
aI247
aI27
aI348
aI353
aI326
aI37
aI1
aI23
aI6
aI328
aI342
aI325
aI25
aI8
aI335
aI344
aI30
aI347
aI12
aI322
aI24
aI353
aI24
aI340
aI331
aI340
aI8
aI40
aI322
aI16
aI349
aI349
aI21
aI348
aI17
aI69
aI337
aI91
aI334
aI333
aI340
aI142
aI354
aI0
aI333
aI340
aI350
aI332
aI112
aI1
aI343
aI7
aI332
aI48
aI345
aI29
aI0
aI141
aI336
aI338
aI325
aI172
aI173
aI21
aI26
aI1
aI165
aI331
aI194
aI21
aI14
aI336
aI209
aI337
aI0
aI1
aI332
aI16
aI15
aI94
aI339
aI5
aI341
aI338
aI311
aI339
aI292
aI67
aI34
aI330
aI327
aI17
aI30
aI26
aI0
aI9
aI346
aI24
aI334
aI10
aI336
aI338
aI37
aI330
aI337
aI0
aI1
aI191
aI146
aI23
aI355
aI1
aI28
aI340
aI341
aI348
aI28
aI24
aI13
aI337
aI33
aI345
aI19
aI42
aI333
aI6
aI32
aI216
aI17
aI346
aI336
aI16
aI26
aI40
aI335
aI0
aI2
aI9
aI23
aI248
aI14
aI1
aI346
aI11
aI347
aI179
aI196
aI344
aI228
aI351
aI115
aI346
aI338
aI12
aI26
aI330
aI15
aI247
aI339
aI32
aI169
aI57
aI338
aI1
aI13
aI38
aI332
aI170
aI8
aI56
aI224
aI16
aI22
aI336
aI148
aI27
aI340
aI15
aI342
aI179
aI343
aI1
aI321
aI6
aI346
aI249
aI335
aI51
aI343
aI210
aI21
aI19
aI15
aI200
aI22
aI16
aI336
aI337
aI345
aI337
aI172
aI342
aI19
aI30
aI15
aI122
aI20
aI21
aI67
aI317
aI344
aI56
aI172
aI196
aI0
aI9
aI326
aI127
aI237
aI38
aI31
aI20
aI347
aI342
aI52
aI28
aI342
aI329
aI335
aI0
aI349
aI320
aI140
aI329
aI335
aI346
aI341
aI18
aI56
aI341
aI335
aI350
aI203
aI329
aI30
aI193
aI336
aI346
aI338
aI343
aI56
aI292
aI343
aI23
aI347
aI329
aI144
aI160
aI20
aI160
aI5
aI338
aI34
aI338
aI213
aI5
aI10
aI323
aI12
aI21
aI5
aI142
aI325
aI16
aI349
aI16
aI348
aI311
aI5
aI92
aI215
aI26
aI331
aI35
aI337
aI5
aI29
aI29
aI8
aI346
aI342
aI338
aI299
aI0
aI345
aI193
aI242
aI331
aI12
aI272
aI19
aI194
aI322
aI40
aI349
aI341
aI302
aI172
aI4
aI8
aI11
aI336
aI159
aI29
aI169
aI322
aI25
aI17
aI16
aI330
aI18
aI179
aI181
aI20
aI336
aI20
aI344
aI341
aI336
aI41
aI329
aI35
aI336
aI337
aI7
aI152
aI20
aI14
aI341
aI345
aI14
aI342
aI145
aI230
aI318
aI25
aI11
aI341
aI349
aI11
aI339
aI335
aI17
aI322
aI339
aI341
aI332
aI32
aI29
aI22
aI53
aI24
aI335
aI325
aI341
aI338
aI39
aI117
aI191
aI335
aI32
aI13
aI320
aI13
aI350
aI13
aI354
aI38
aI339
aI321
aI138
aI337
aI323
aI0
aI19
aI225
aI335
aI340
aI342
aI44
aI21
aI1
aI150
aI242
aI297
aI7
aI342
aI13
aI326
aI29
aI8
aI342
aI313
aI324
aI338
aI345
aI10
aI15
aI178
asS'cat'
p20
(lp21
sS'person'
p22
(lp23
sS'train'
p24
(lp25
I47
aI213
aI7
aI10
aI354
aI325
aI354
aI249
aI7
aI175
aI242
aI341
aI88
aI346
aI88
aI355
aI355
aI151
aI28
aI15
aI160
aI328
aI356
aI19
aI39
aI55
aI149
aI163
aI8
aI9
aI95
aI13
aI356
aI14
aI347
aI335
aI157
aI45
aI18
aI347
aI199
aI19
aI2
aI82
aI343
aI32
aI344
aI353
aI21
aI292
aI7
aI351
aI7
aI350
aI201
aI27
aI160
aI36
aI343
aI4
aI343
aI180
aI267
aI14
aI54
aI329
aI42
aI342
aI0
aI4
aI25
aI354
aI13
aI65
aI5
aI5
aI17
aI67
aI3
aI19
aI36
aI12
aI9
aI201
aI9
aI6
aI5
aI353
aI37
aI37
aI34
aI28
aI43
aI317
aI340
aI297
aI17
aI336
aI30
aI25
aI18
aI10
aI154
aI43
aI174
aI353
aI6
aI90
aI341
aI97
aI353
aI350
aI115
aI24
aI8
aI10
aI21
aI20
aI45
aI346
aI88
aI43
aI83
aI90
aI337
aI336
aI341
aI7
aI342
aI355
aI280
aI354
aI350
aI335
aI335
aI353
aI95
aI290
aI212
aI251
aI22
aI23
aI201
aI356
aI319
aI345
aI14
aI77
aI3
aI0
aI354
aI36
aI39
aI206
aI15
aI138
aI352
aI8
aI355
aI282
aI140
aI117
aI34
aI36
aI12
aI323
aI125
aI57
aI339
aI331
aI7
aI352
aI277
aI339
aI13
aI350
aI332
aI6
aI5
aI9
aI10
aI4
aI166
aI175
aI193
aI22
aI7
aI36
aI6
aI0
aI0
aI4
aI85
aI27
aI48
aI272
aI343
aI21
aI337
aI0
aI211
aI238
aI354
aI335
aI248
aI21
aI190
aI17
aI229
aI338
aI186
aI230
aI90
aI80
aI116
aI313
aI256
aI65
aI354
aI339
aI73
aI16
aI24
aI205
aI90
aI25
aI6
aI331
aI152
aI5
aI21
aI9
aI20
aI3
aI349
aI355
aI9
aI8
aI166
aI171
aI349
aI345
aI41
aI114
aI32
aI342
aI16
aI9
aI20
aI192
aI6
aI344
aI125
aI88
aI187
aI72
aI307
aI132
aI16
aI330
aI330
aI9
aI22
aI32
aI3
aI90
aI351
aI41
aI110
aI107
aI137
aI6
aI54
aI18
aI6
aI5
aI20
aI212
aI354
aI330
aI37
aI78
aI0
aI338
aI341
aI257
aI27
aI323
aI16
aI20
aI310
aI304
aI268
aI270
aI322
aI161
aI349
aI36
aI124
aI347
aI122
aI330
aI346
aI166
aI164
aI355
aI81
aI354
aI314
aI213
aI344
aI350
aI345
aI270
aI321
aI5
aI23
aI349
aI172
aI25
aI2
aI54
aI356
aI345
aI6
aI15
aI96
aI353
aI338
aI9
aI2
aI347
aI26
aI352
aI356
aI345
aI29
aI2
aI9
aI3
aI18
aI22
aI353
aI351
aI348
aI358
aI3
aI83
aI77
aI17
aI292
aI18
aI353
aI6
aI341
aI21
aI352
aI18
aI6
aI16
aI350
aI6
aI2
aI354
aI18
aI347
aI8
aI324
aI0
aI345
aI351
aI242
aI354
aI342
aI26
aI12
aI3
aI8
aI25
aI7
aI317
aI16
aI2
aI354
aI339
aI355
aI5
aI11
aI4
aI347
aI354
aI350
aI5
aI350
aI311
aI330
aI340
aI339
aI334
aI16
aI332
aI40
aI346
aI19
aI10
aI352
aI0
aI346
aI351
aI352
aI21
aI20
aI21
aI313
aI5
aI352
aI0
aI353
aI19
aI5
aI343
aI23
aI339
aI18
aI353
aI352
aI4
aI355
aI344
aI15
aI341
aI356
aI344
aI355
aI13
aI341
aI6
aI15
aI353
aI14
aI8
aI30
aI4
aI9
aI356
aI8
aI342
aI333
aI339
aI25
aI312
aI5
aI142
aI29
aI346
aI0
aI9
aI0
aI3
aI2
aI355
aI318
aI18
aI1
aI19
aI348
aI340
aI6
aI13
aI345
aI13
aI0
aI340
aI353
aI26
aI343
aI331
aI17
aI0
aI340
aI344
aI353
aI355
aI333
aI354
aI8
aI340
aI27
aI38
aI334
aI19
aI8
aI352
aI6
aI19
aI351
aI15
aI22
aI3
aI5
aI339
aI4
aI6
aI135
aI5
aI292
aI355
aI326
aI345
aI319
aI0
aI11
aI324
aI353
aI8
aI13
aI4
aI29
aI347
aI14
aI10
aI32
aI28
aI11
aI349
aI284
aI346
aI9
aI18
aI359
aI340
aI339
aI9
aI17
aI9
aI348
aI353
aI351
aI8
aI32
aI342
aI345
aI33
aI332
aI346
aI347
aI11
aI7
aI353
aI24
aI325
aI31
aI15
aI342
aI356
aI8
aI341
aI350
aI287
aI7
aI320
aI5
aI345
aI13
aI347
aI6
aI352
aI5
aI347
aI26
aI353
aI112
aI4
aI355
aI7
aI338
aI351
aI5
aI345
aI356
aI15
aI352
aI15
aI333
aI341
aI353
aI12
aI355
aI6
aI326
aI255
aI28
aI350
aI12
aI8
aI3
aI16
aI8
aI19
aI355
aI347
aI6
aI267
aI13
aI10
aI6
aI0
aI11
aI314
aI77
aI333
aI14
aI332
aI330
aI0
aI0
aI0
aI9
aI351
aI0
aI6
aI19
aI312
aI13
aI13
aI356
aI352
aI342
aI349
aI5
aI352
aI351
aI354
aI4
aI340
aI12
aI350
aI355
aI353
aI12
aI20
aI8
aI2
aI27
aI342
aI353
aI352
aI263
aI4
aI11
aI11
aI15
aI12
aI4
aI335
aI28
aI9
aI6
aI348
aI353
aI0
aI22
aI3
aI209
aI329
aI328
aI9
aI353
aI19
aI0
aI353
aI19
aI19
aI7
aI349
aI6
aI1
aI7
aI12
aI359
aI0
aI12
aI30
aI355
aI350
aI346
aI345
aI345
aI6
aI348
aI350
aI10
aI33
aI5
aI353
aI14
aI31
aI345
aI6
aI67
aI347
aI349
aI17
aI0
aI5
aI20
aI14
aI352
aI8
aI17
aI345
aI350
aI17
aI356
aI347
aI351
aI354
aI33
aI336
aI14
aI353
aI11
aI340
aI4
aI0
aI352
aI348
aI36
aI345
aI47
aI6
aI5
aI30
aI14
aI341
aI343
aI326
aI268
aI18
aI8
aI327
aI337
aI5
aI37
aI0
aI11
aI6
aI13
aI342
aI8
aI349
aI353
aI4
aI345
aI350
aI356
aI356
aI353
aI350
aI26
aI356
aI0
aI0
aI6
aI344
aI25
aI339
aI4
aI345
aI36
aI26
aI18
aI346
aI349
aI5
aI2
aI353
aI84
aI10
aI347
aI347
aI350
aI331
aI354
aI345
aI13
aI21
aI6
aI343
aI7
aI0
aI341
aI344
aI25
aI28
aI6
aI352
aI5
aI21
aI350
aI350
aI348
aI339
aI338
aI8
aI344
aI12
aI326
aI195
aI344
aI10
aI347
aI353
aI10
aI25
aI15
aI13
aI8
aI21
aI355
aI354
aI343
aI0
aI343
aI322
aI15
aI346
aI12
aI324
aI344
aI14
aI340
aI277
aI3
aI349
aI310
aI349
aI62
aI351
aI9
aI3
aI348
aI5
aI355
aI25
aI355
aI330
aI17
aI327
aI13
aI14
aI16
aI345
aI6
aI35
aI344
aI11
aI2
aI354
aI19
aI0
aI17
aI22
aI353
aI15
aI344
aI350
aI40
aI26
aI352
aI2
aI356
aI292
aI346
aI332
aI15
aI3
aI322
aI8
aI22
aI2
aI338
aI6
aI0
aI12
aI336
aI4
aI19
aI348
aI20
aI16
aI117
aI329
aI9
aI327
aI339
aI334
aI343
aI351
aI15
aI347
aI0
aI11
aI354
aI15
aI36
aI13
aI17
aI14
aI23
aI8
aI351
aI10
aI356
aI16
aI14
aI343
aI351
aI22
aI7
aI341
aI347
aI13
aI349
aI342
aI352
aI353
aI350
aI2
aI292
aI18
aI353
aI35
aI342
aI353
aI353
aI11
aI11
aI38
aI16
aI19
aI349
aI328
aI341
aI354
aI19
aI12
aI354
aI77
aI343
aI354
aI241
aI0
aI341
aI327
aI42
aI346
aI353
aI25
aI14
aI52
aI1
aI347
aI20
aI5
aI0
aI52
aI26
aI342
aI11
aI13
aI22
aI345
aI17
aI346
aI4
aI322
aI345
aI355
aI28
aI353
aI21
aI338
aI346
aI6
aI4
aI338
aI345
aI346
aI312
aI0
aI11
aI345
aI351
aI23
aI5
aI350
aI18
aI17
aI9
aI15
aI342
aI3
aI23
aI3
aI350
aI20
aI27
aI346
aI356
aI18
aI329
aI15
aI18
aI12
aI334
aI7
aI7
aI15
aI17
aI332
aI40
aI11
aI343
aI8
aI345
aI12
aI342
aI339
aI332
aI12
aI352
aI347
aI354
aI5
aI17
aI8
aI30
aI1
aI7
aI325
aI16
aI346
aI328
aI340
aI344
aI330
aI344
aI347
aI6
aI215
aI19
aI353
aI327
aI353
aI9
aI344
aI337
aI321
aI3
aI6
aI12
aI3
aI15
aI8
aI343
aI356
aI5
aI8
aI14
aI24
aI5
aI8
aI354
aI336
aI22
aI13
aI19
aI345
aI37
aI353
aI343
aI20
aI343
aI11
aI26
aI3
aI22
aI43
aI6
aI4
aI351
aI275
aI352
aI355
aI356
aI6
aI343
aI351
aI67
aI9
aI32
aI343
aI7
aI356
aI15
aI313
aI333
aI355
aI356
aI20
aI0
aI332
aI352
aI346
aI353
aI338
aI347
aI7
aI7
aI347
aI345
aI23
aI11
aI15
aI354
aI350
aI106
aI3
aI6
aI5
aI7
aI356
aI342
aI4
aI12
aI7
aI23
aI4
aI24
aI353
aI8
aI4
aI29
aI7
aI25
aI354
aI17
aI339
aI20
aI9
aI9
aI343
aI3
aI350
aI5
aI349
aI17
aI354
aI350
aI331
aI353
aI322
aI354
aI5
aI351
aI348
aI344
aI203
aI18
aI20
aI3
aI14
aI323
aI117
aI353
aI19
aI339
aI7
aI351
aI4
aI37
aI307
aI24
aI343
aI336
aI0
aI13
aI16
aI27
aI13
aI0
aI20
aI10
aI31
aI353
aI325
aI339
aI337
aI3
aI344
aI334
aI335
aI7
aI6
aI356
aI353
aI74
aI18
aI347
aI0
aI334
aI3
aI17
aI6
aI52
aI356
aI332
aI7
aI351
aI333
aI331
aI335
aI7
aI351
aI11
aI12
aI20
aI355
aI14
aI353
aI345
aI8
aI352
aI351
aI24
aI348
aI11
aI17
aI5
aI348
aI0
aI356
aI3
aI347
aI350
aI353
aI6
aI343
aI338
aI14
aI45
aI8
aI23
aI346
aI290
aI339
aI317
aI30
aI347
aI4
aI28
aI14
aI15
aI340
aI12
aI335
aI352
aI25
aI1
aI42
aI349
aI49
aI326
aI354
aI340
aI5
aI7
aI353
aI15
aI9
aI354
aI7
aI11
aI12
aI31
aI18
aI19
aI44
aI21
aI353
aI350
aI24
aI353
aI345
aI350
aI12
aI13
aI349
aI341
aI345
aI347
aI16
aI251
aI13
aI16
aI14
aI349
aI18
aI356
aI342
aI5
aI349
aI343
aI3
aI343
aI47
aI18
aI346
aI350
aI338
aI26
aI335
aI0
aI6
aI52
aI348
aI24
aI32
aI3
aI309
aI348
aI351
aI27
aI344
aI345
aI352
aI266
aI17
aI7
aI348
aI347
aI59
aI3
aI11
aI351
aI353
aI342
aI297
aI19
aI6
aI4
aI356
aI322
aI4
aI11
aI346
aI0
aI17
aI6
aI20
aI338
aI3
aI14
aI348
aI4
aI4
aI12
aI47
aI347
aI329
aI12
aI353
aI6
aI29
aI13
aI6
aI15
aI72
aI9
aI334
aI354
aI20
aI354
aI353
aI13
aI43
aI2
aI348
aI119
aI6
aI342
aI14
aI356
aI16
aI7
aI356
aI24
aI350
aI12
aI352
aI354
aI6
aI348
aI354
aI330
aI343
aI349
aI13
aI353
aI11
aI334
aI356
aI5
aI14
aI355
aI14
aI322
aI343
aI345
aI12
aI9
aI20
aI355
aI10
aI341
aI7
aI0
aI20
aI359
aI0
aI0
aI355
aI5
aI297
aI7
aI6
aI12
aI3
aI22
aI344
aI324
aI3
aI352
aI350
aI346
aI331
aI352
aI10
aI15
aI8
aI6
aI8
aI6
aI13
aI343
aI353
aI12
aI322
aI351
aI3
aI7
aI346
aI20
aI18
aI32
aI354
aI356
aI356
aI356
aI3
aI11
aI347
aI356
aI32
aI24
aI11
aI4
aI13
aI10
aI347
aI117
aI320
aI9
aI346
aI13
aI331
aI343
aI7
aI355
aI10
aI14
aI14
aI97
aI5
aI336
aI352
aI21
aI353
aI351
aI347
aI9
aI347
aI12
aI9
aI11
aI27
aI343
aI319
aI5
aI13
aI14
aI353
aI11
aI7
aI0
aI347
aI16
aI351
aI333
aI353
aI47
aI351
aI8
aI353
aI328
aI20
aI337
aI6
aI20
aI349
aI164
aI322
aI46
aI317
aI346
aI9
aI356
aI342
aI67
aI354
aI14
aI7
aI11
aI0
aI39
aI351
aI353
aI322
aI20
aI345
aI354
aI348
aI18
aI18
aI5
aI340
aI345
aI21
aI333
aI10
aI37
aI9
aI0
aI342
aI5
aI23
aI19
aI341
aI347
aI322
aI16
aI27
aI356
aI117
aI348
aI332
aI5
aI2
aI22
aI6
aI2
aI352
aI11
aI6
aI355
aI347
aI23
aI344
aI13
aI349
aI349
aI17
aI344
aI352
aI352
aI356
aI4
aI331
aI338
aI0
aI342
aI26
aI0
aI353
aI356
aI49
aI342
aI314
aI26
aI12
aI200
aI326
aI353
aI346
aI334
aI330
aI341
aI2
aI3
aI350
aI12
aI11
aI333
aI353
aI7
aI352
aI345
aI3
aI344
aI327
aI347
aI12
aI5
aI9
asS'boat'
p26
(lp27
I89
aI90
aI46
aI312
aI245
aI65
aI81
aI229
aI85
aI240
aI247
aI121
aI30
aI53
aI53
aI98
aI90
aI67
aI115
aI12
aI75
aI217
aI224
aI302
aI0
aI10
aI95
aI2
aI12
aI260
aI354
aI180
aI194
aI25
aI15
aI65
aI34
aI143
aI124
aI158
aI97
aI114
aI295
aI270
aI275
aI105
aI330
aI309
aI1
aI10
aI345
aI82
aI179
aI102
aI90
aI55
aI155
aI100
aI271
aI302
aI300
aI252
aI103
aI269
aI288
aI250
aI259
aI293
aI282
aI264
aI319
aI251
aI122
aI90
aI166
aI205
aI180
aI195
aI223
aI205
aI354
aI337
aI77
aI175
aI286
aI96
aI79
aI189
aI270
aI127
aI125
aI154
aI247
aI277
aI263
aI266
aI77
aI86
aI15
aI20
aI21
aI0
aI250
aI257
aI0
aI79
aI252
aI230
aI250
aI289
aI102
aI33
aI289
aI337
aI90
aI109
aI119
aI257
aI112
aI120
aI290
aI312
aI317
aI340
aI134
aI335
aI300
aI278
aI312
aI42
aI80
aI7
aI25
aI23
aI356
aI10
aI7
aI15
aI150
aI294
aI174
aI3
aI247
aI169
aI132
aI257
aI310
aI315
aI20
aI60
aI41
aI275
aI320
aI145
aI169
aI35
aI199
aI160
aI94
aI158
aI200
aI0
aI0
aI356
aI335
aI302
aI15
aI239
aI270
aI250
aI67
aI306
aI307
aI297
aI123
aI23
aI149
aI82
aI10
aI14
aI247
aI270
aI155
aI41
aI327
aI180
aI190
aI20
aI54
aI31
aI90
aI102
aI57
aI84
aI98
aI154
aI354
aI211
aI336
aI110
aI55
aI0
aI351
aI314
aI154
aI331
aI167
aI168
aI131
aI133
aI145
aI358
aI197
aI189
aI15
aI47
aI0
aI70
aI219
aI225
aI327
aI270
aI127
aI231
aI6
aI14
aI75
aI260
aI317
aI270
aI185
aI329
aI352
aI112
aI235
aI89
aI33
aI12
aI5
aI1
aI67
aI24
aI275
aI275
aI252
aI228
aI240
aI127
aI347
aI355
aI45
aI145
aI101
aI213
aI204
aI200
aI70
aI85
aI41
aI159
aI149
aI132
aI112
aI95
aI270
aI273
aI270
aI308
aI315
aI0
aI90
aI0
aI83
aI90
aI336
aI6
aI345
aI149
aI81
aI190
aI67
aI195
aI82
aI90
aI338
aI226
aI165
aI165
aI314
aI324
aI197
aI212
aI193
aI11
aI338
aI193
aI300
aI40
aI112
aI239
aI307
aI130
aI272
aI245
aI266
aI265
aI235
aI272
aI135
aI342
aI67
aI57
aI293
aI326
aI23
aI55
aI278
aI290
aI92
aI21
aI90
aI38
aI212
aI90
aI147
aI163
aI1
aI353
aI349
aI351
aI356
aI4
aI358
aI323
aI54
aI109
aI99
aI0
aI179
aI270
aI270
aI270
aI230
aI296
aI329
aI22
aI164
aI156
aI193
aI305
aI321
aI104
aI13
aI68
aI176
aI207
aI200
aI92
aI275
aI78
aI208
aI292
aI321
aI47
aI203
aI205
aI220
aI165
aI247
aI263
aI19
aI310
aI103
aI292
aI25
aI300
aI332
aI350
aI295
aI103
aI149
aI163
aI67
aI150
aI297
aI335
aI190
aI211
aI183
aI203
aI275
aI247
aI100
aI90
aI105
aI0
aI297
aI89
aI104
aI110
aI90
aI95
aI100
aI100
aI270
aI172
aI165
aI144
aI242
aI270
aI326
aI325
aI310
aI247
aI16
aI130
aI29
aI279
aI305
aI317
aI1
aI353
aI175
aI314
aI90
aI275
aI310
aI305
aI305
aI350
aI0
aI0
aI340
aI134
aI231
aI318
aI12
aI196
aI214
aI220
aI200
aI154
aI120
aI260
aI67
aI0
aI244
aI2
aI91
aI47
aI330
aI332
aI205
aI169
aI275
aI99
aI115
aI101
aI72
aI184
aI165
aI43
aI257
aI32
aI37
aI92
aI94
aI275
aI80
aI248
aI292
aI284
aI270
aI281
aI90
aI90
aI340
aI32
aI242
aI325
aI190
aI67
aI76
aI44
aI52
aI92
aI308
aI290
aI203
aI33
aI0
aI36
aI112
aI110
aI103
aI52
aI350
aI165
aI155
aI180
aI0
aI113
aI100
aI67
aI291
aI350
aI270
aI292
aI83
aI157
aI154
aI324
aI145
aI277
aI353
aI123
aI122
aI2
aI199
aI259
aI282
aI101
aI355
aI78
aI233
aI92
aI348
aI285
aI19
aI180
aI17
aI263
aI295
aI66
aI110
aI226
aI195
aI160
aI144
aI297
aI13
aI6
aI24
aI85
aI141
aI326
aI129
aI195
aI252
aI272
aI309
aI155
aI152
aI342
aI179
aI11
aI221
aI102
aI19
aI257
aI19
aI350
aI302
aI237
aI357
aI185
aI196
aI20
aI28
aI185
aI187
aI35
aI170
aI169
aI208
aI31
aI72
aI175
aI222
aI109
aI71
aI22
aI356
aI346
aI0
aI157
aI155
aI317
aI145
aI330
aI30
aI85
aI37
aI0
aI344
aI351
aI338
aI87
aI29
aI16
aI162
aI182
aI127
aI280
aI42
aI142
aI200
aI348
aI102
aI155
aI311
aI62
aI323
aI334
aI334
aI148
aI51
aI127
aI128
aI279
aI257
aI168
aI347
aI19
aI332
aI128
aI267
aI322
aI26
aI168
aI338
aI208
aI22
aI21
aI34
aI346
aI336
aI354
aI179
aI162
aI0
aI338
aI89
aI177
aI45
aI321
aI112
aI197
aI280
aI250
aI165
aI149
aI245
aI137
aI16
aI17
aI326
aI163
aI201
aI110
aI274
aI235
aI51
aI292
aI0
aI42
aI123
aI80
aI189
aI275
aI57
aI319
aI170
aI195
aI21
aI270
aI22
aI13
aI189
aI77
aI214
aI72
aI67
aI197
aI117
aI199
aI194
aI15
aI8
aI136
aI183
aI349
aI260
aI92
aI112
aI307
aI183
aI336
aI323
aI80
aI40
aI63
aI62
aI292
aI138
aI154
aI107
aI264
aI28
aI29
aI324
aI7
aI23
aI260
aI171
aI184
aI8
aI230
aI159
aI332
aI9
aI353
aI52
aI67
aI287
aI179
aI116
aI342
aI161
aI180
aI106
aI177
aI171
aI210
aI263
aI331
aI179
aI133
aI7
aI195
aI10
aI251
aI69
aI0
aI53
aI202
aI262
aI303
aI319
aI331
aI201
aI257
aI257
aI186
aI189
aI34
aI112
aI112
aI337
aI352
aI112
aI249
aI11
aI101
aI98
aI76
aI67
aI46
aI40
aI75
aI103
aI112
aI84
aI172
aI301
aI102
aI194
aI57
aI95
aI282
aI203
aI204
aI341
aI241
aI283
aI269
aI338
aI272
aI353
aI44
aI108
aI247
aI292
aI189
aI323
aI0
aI226
aI247
aI147
aI37
aI0
aI156
aI0
aI228
aI287
aI152
aI340
aI1
aI318
aI194
aI40
aI188
aI112
aI252
aI355
aI22
aI152
aI192
aI143
aI332
aI232
aI249
aI277
aI45
aI242
aI322
aI17
aI38
aI2
aI279
aI0
aI293
aI187
aI197
aI343
aI169
aI180
aI345
aI317
aI286
aI317
aI350
aI5
aI152
aI278
aI327
aI11
aI282
aI31
aI311
aI346
aI349
aI159
aI23
aI1
aI16
aI234
aI13
aI121
aI282
aI304
aI294
aI309
aI112
aI72
aI6
aI129
aI285
aI38
aI7
aI355
aI247
aI243
aI123
aI13
aI356
aI277
aI112
aI112
aI327
aI62
aI322
aI72
aI309
aI275
aI17
aI215
aI5
aI183
aI77
aI185
aI341
aI334
aI48
aI351
aI65
aI337
aI193
aI143
aI262
aI306
aI112
aI203
aI150
aI354
aI347
aI180
aI197
aI343
aI313
aI323
aI159
aI20
aI207
aI22
aI7
aI11
aI178
aI78
aI187
aI11
aI117
aI196
aI337
aI119
aI302
aI327
aI171
aI317
aI184
aI247
aI50
aI0
aI172
aI8
aI96
aI167
aI206
aI247
aI347
aI162
aI188
aI0
aI322
aI134
aI112
aI18
aI50
aI190
aI74
aI101
aI130
aI349
aI166
aI196
aI199
aI35
aI24
aI38
aI218
aI96
aI34
aI15
aI176
aI185
aI29
aI204
aI250
aI272
aI271
aI91
aI247
aI265
aI322
aI289
aI327
aI186
aI334
aI356
aI110
aI9
aI185
aI282
aI145
aI187
aI233
aI344
aI350
aI355
aI13
aI235
aI12
aI161
aI67
aI279
aI256
aI352
aI330
aI316
aI221
aI337
aI287
aI312
aI62
aI36
aI307
aI180
aI315
aI290
aI127
aI127
aI168
aI70
aI164
aI160
aI129
aI322
aI144
aI310
aI1
aI308
aI322
aI341
aI310
aI1
aI3
aI190
aI233
aI87
aI329
aI311
aI132
aI257
aI78
aI332
aI39
aI110
aI30
aI222
aI189
aI8
aI217
aI182
aI8
aI189
aI242
aI72
aI328
aI320
aI334
aI145
aI192
aI188
aI180
aI102
aI287
aI107
aI247
aI13
aI111
aI310
aI190
aI182
aI177
aI114
aI142
aI292
aI353
aI0
aI321
aI252
aI77
aI23
aI307
aI341
aI315
aI202
aI350
aI335
aI352
aI318
aI157
aI267
aI267
aI256
aI292
aI22
aI112
aI142
aI266
aI160
aI307
aI0
aI191
aI247
aI278
aI165
aI0
aI331
aI53
aI0
aI1
aI112
aI83
aI190
aI354
aI318
aI306
aI224
aI285
aI127
aI337
aI134
aI297
aI282
aI241
aI317
aI236
aI44
aI82
aI1
aI356
aI156
aI12
aI0
aI4
aI283
aI86
aI193
aI247
aI112
aI292
aI303
aI277
aI318
aI30
aI36
aI320
aI73
aI194
aI201
aI45
aI37
aI247
aI283
aI112
aI236
aI201
aI347
aI17
aI167
aI293
aI191
aI36
aI102
aI108
aI167
aI226
aI302
aI47
aI324
aI12
aI0
aI350
aI247
aI19
aI215
aI0
aI345
aI340
aI272
aI327
aI151
aI18
aI16
aI170
aI130
aI179
aI91
aI60
aI287
aI74
aI260
aI92
aI332
aI282
aI356
aI189
aI23
aI18
aI127
aI129
aI165
aI247
aI165
aI154
aI91
aI251
aI229
aI310
aI5
aI351
aI172
aI78
aI180
aI237
aI17
aI191
aI171
aI0
aI0
aI349
aI140
aI3
aI83
aI80
aI54
aI139
aI109
aI284
aI337
aI328
aI124
aI25
aI264
aI202
aI312
aI41
aI136
aI352
aI222
aI277
aI134
aI0
aI238
aI39
aI90
aI7
aI2
aI318
aI13
aI279
aI90
aI271
aI268
aI180
aI242
aI340
aI76
aI185
aI44
aI119
aI49
aI333
aI248
aI38
aI22
aI194
aI9
aI19
aI26
aI33
aI48
aI17
aI120
aI319
aI243
aI339
aI246
aI236
aI4
aI352
aI213
aI112
aI185
aI336
aI288
aI19
aI71
aI227
aI99
aI247
aI67
aI331
aI287
aI251
aI134
aI154
aI0
aI297
aI185
aI355
aI28
aI165
aI341
aI192
aI108
aI247
aI252
aI32
aI324
aI157
aI16
aI67
aI233
aI237
aI289
aI88
aI185
aI203
aI99
aI271
aI7
aI81
aI185
aI12
aI330
aI344
aI172
aI0
aI191
aI302
aI30
aI11
aI5
aI179
aI272
aI13
aI96
aI251
aI247
aI247
aI313
aI168
aI72
aI210
aI335
aI272
aI248
aI159
aI257
aI168
aI346
aI17
aI32
aI181
aI163
aI245
aI331
aI27
aI29
aI280
aI28
aI26
aI13
aI203
aI57
aI91
aI216
aI58
aI172
aI283
aI227
aI126
aI121
aI157
aI57
aI335
aI4
aI261
aI0
aI48
aI29
aI37
aI122
aI11
aI351
aI235
aI257
aI55
aI238
aI171
aI258
aI177
aI67
aI233
aI121
aI180
aI250
aI350
aI142
aI23
aI8
aI2
aI279
aI162
aI112
aI37
aI226
aI72
aI328
aI324
aI21
aI67
aI213
aI234
aI16
aI67
aI340
aI277
aI348
aI207
aI271
aI302
aI351
aI145
aI338
aI158
aI189
aI33
aI199
aI218
aI132
aI184
aI320
aI108
aI212
aI218
aI35
aI352
aI151
aI67
aI25
aI32
aI238
aI349
aI90
aI57
aI39
aI198
aI282
aI233
aI72
aI342
aI327
aI185
aI202
aI73
aI45
aI48
aI82
aI336
aI308
aI170
aI66
aI335
aI0
aI62
aI303
aI197
aI87
aI320
aI340
aI210
aI24
aI7
aI269
aI292
aI208
aI66
aI112
aI23
aI63
aI44
aI122
aI340
aI155
aI87
aI244
aI23
aI43
aI320
aI51
aI42
aI286
aI112
aI174
aI85
aI247
aI346
aI31
aI1
aI210
aI240
aI356
aI352
aI4
aI34
aI112
aI134
aI212
aI13
aI292
aI122
aI33
aI355
aI314
aI4
aI62
aI192
aI27
aI347
aI261
aI52
aI334
aI354
aI0
aI217
aI251
aI277
aI20
aI76
aI141
aI330
aI92
aI184
aI86
aI107
aI338
aI300
aI301
aI342
aI309
aI168
aI169
aI174
aI184
aI339
aI351
aI252
aI130
aI152
aI344
aI341
aI0
aI356
aI287
aI252
aI23
aI67
aI326
aI281
aI355
aI332
aI345
aI321
aI87
aI311
aI190
aI218
aI21
aI265
aI247
aI180
aI93
aI286
aI78
aI272
aI255
aI232
aI229
aI224
aI163
aI17
aI188
aI154
aI315
aI262
aI313
aI351
aI16
aI312
aI330
aI104
aI42
aI256
aI321
aI336
aI257
aI141
aI139
aI204
aI189
aI76
aI16
aI97
aI266
aI95
aI320
aI243
aI221
aI16
aI153
aI11
aI247
aI129
aI112
aI19
aI8
aI0
aI247
aI33
aI230
aI121
aI145
aI303
aI180
aI315
aI333
aI302
aI67
aI286
aI309
aI180
aI335
aI293
aI137
aI238
aI48
aI63
aI172
aI117
aI212
aI219
aI152
aI216
aI43
aI54
aI174
aI168
aI22
aI55
aI39
aI339
aI354
aI261
aI142
aI174
aI175
aI172
aI91
aI247
aI343
aI346
aI142
aI246
aI247
aI255
aI287
aI322
aI296
aI60
aI135
aI301
aI0
aI322
aI222
aI190
aI28
aI190
aI204
aI259
aI24
aI96
aI157
aI341
aI333
aI302
aI12
aI79
aI183
aI260
aI341
aI201
aI322
aI308
aI282
aI2
aI72
aI268
aI192
aI102
aI203
aI177
aI18
aI335
aI14
aI222
aI273
aI278
aI332
aI247
aI54
aI329
aI327
aI265
aI87
aI149
aI305
aI112
aI325
aI301
aI345
aI316
aI333
aI95
aI198
aI122
aI5
aI343
aI137
aI190
aI109
aI10
aI292
aI305
aI325
aI280
aI112
aI257
aI38
aI58
aI3
aI57
aI188
aI22
aI67
aI36
aI0
aI175
aI349
aI0
aI229
aI10
aI307
aI130
aI41
aI212
aI179
aI37
aI180
aI261
aI197
aI10
aI207
aI348
aI86
aI150
aI97
aI344
aI152
aI257
aI28
aI52
aI275
aI261
aI173
aI227
aI52
aI346
aI20
aI86
aI42
aI162
aI158
aI282
aI324
aI146
aI220
aI247
aI178
aI50
aI351
aI223
aI195
aI20
aI270
aI237
aI221
aI172
aI300
aI197
aI334
aI40
aI240
aI316
aI54
aI239
aI278
aI73
aI191
aI228
aI259
aI94
aI23
aI179
aI175
aI91
aI209
aI220
aI160
aI262
aI112
aI14
aI164
aI252
aI345
aI350
aI78
aI169
aI14
aI257
aI292
aI67
aI228
aI180
aI331
aI205
aI94
aI171
aI177
aI341
aI6
aI32
aI143
aI290
aI140
aI118
aI320
aI39
aI0
aI244
aI37
aI3
aI85
aI146
aI269
aI7
aI18
aI224
aI340
aI62
aI253
aI333
aI304
aI209
aI142
aI44
aI33
aI162
aI247
aI133
aI319
aI301
aI96
aI44
aI22
aI81
aI165
aI56
aI277
aI207
aI170
aI210
aI34
aI16
aI320
aI203
aI180
aI5
aI150
aI346
aI9
aI329
aI121
aI334
aI53
aI269
aI3
aI6
aI284
aI303
aI258
aI112
aI51
aI22
aI247
aI275
aI316
aI119
aI106
aI336
aI254
aI148
aI100
aI236
aI297
aI175
aI62
aI46
aI269
aI352
aI305
aI13
aI117
aI23
aI232
aI34
aI40
aI147
aI224
aI239
aI199
aI256
aI77
aI135
aI282
aI91
aI30
aI195
aI356
aI5
aI42
aI253
aI5
aI205
aI233
aI285
aI218
aI339
aI165
aI292
aI351
aI0
aI197
aI13
aI309
aI39
aI61
aI262
aI77
aI72
aI238
aI169
aI104
aI168
aI45
aI72
aI8
aI336
aI298
aI0
aI118
aI113
aI247
aI321
aI1
aI40
aI355
aI130
aI322
aI25
aI292
aI54
aI297
aI94
aI4
aI74
aI351
aI238
aI311
aI146
aI317
aI349
aI349
aI345
aI331
aI326
aI35
aI346
aI172
aI30
aI340
aI69
aI339
aI67
aI343
aI171
aI0
aI232
aI314
aI68
aI87
aI105
aI239
aI0
aI287
aI0
aI7
aI7
aI335
aI182
aI229
aI37
aI42
aI319
aI240
aI296
aI345
aI180
aI166
aI240
aI293
aI132
aI70
aI248
aI32
aI116
aI261
aI301
aI342
aI28
aI194
aI0
aI141
aI352
aI238
aI149
aI0
aI180
aI65
aI323
aI185
aI244
aI334
aI214
aI21
aI276
aI247
aI334
aI341
aI0
aI26
aI7
aI0
aI357
aI5
aI334
aI10
aI247
aI0
aI24
aI111
aI297
aI115
aI355
aI215
aI6
aI170
aI282
aI302
aI112
aI340
aI215
aI34
aI294
aI185
aI283
aI0
aI257
aI218
aI5
aI217
aI141
aI82
aI0
aI170
aI262
aI29
aI52
aI311
aI183
aI255
aI82
aI317
aI213
aI289
aI165
aI37
aI160
aI228
aI67
aI76
aI32
aI161
aI149
aI338
aI185
aI0
aI355
aI9
aI315
aI329
aI335
aI296
aI63
aI342
aI83
aI332
aI106
aI172
aI174
aI192
aI320
aI340
aI29
aI216
aI124
aI118
aI308
aI64
aI16
aI77
aI28
aI6
aI37
aI271
aI306
aI348
aI0
aI326
aI262
aI164
aI72
aI217
aI41
aI6
aI349
aI168
aI56
aI248
aI185
aI46
aI191
aI180
aI169
aI160
aI346
aI183
aI23
aI241
aI150
aI144
aI290
aI277
aI153
aI17
aI20
aI282
aI30
aI64
aI322
aI194
aI0
aI77
aI49
aI134
aI0
aI240
aI314
aI27
aI212
aI105
aI139
aI315
aI235
aI118
aI159
aI158
aI150
aI199
aI179
aI0
aI198
aI214
aI217
aI225
aI200
aI207
aI352
aI267
aI14
aI202
aI21
aI270
aI10
aI351
aI300
aI259
aI317
aI142
aI319
aI141
aI262
aI332
aI46
aI307
aI278
aI38
aI179
aI116
aI32
aI325
aI303
aI100
aI345
aI347
aI36
aI56
aI205
aI2
aI94
aI84
aI67
aI0
aI20
aI37
aI100
aI17
aI330
aI57
aI168
aI297
aI72
aI41
aI336
aI112
aI239
aI219
aI316
aI150
aI160
aI355
aI0
aI242
aI279
aI84
aI95
aI328
aI241
aI247
aI267
aI180
aI240
aI316
aI336
aI0
aI105
aI287
aI356
aI299
aI252
aI302
aI339
aI157
aI127
aI39
aI45
aI207
aI272
aI262
aI46
aI343
aI237
aI324
aI112
aI6
aI107
aI257
aI72
aI179
aI52
aI184
aI257
aI119
aI175
aI252
aI266
aI89
aI250
aI215
aI297
aI316
aI265
aI328
aI74
aI289
aI0
aI327
aI320
aI165
aI95
aI34
aI320
aI331
aI67
aI267
aI248
aI309
aI294
aI178
aI52
aI112
aI12
aI121
aI107
aI59
aI339
aI62
aI232
aI178
aI201
aI323
aI150
aI324
aI282
aI229
aI183
aI350
aI126
aI90
aI201
aI22
aI199
aI175
aI357
aI74
aI79
aI149
aI129
aI304
aI358
aI247
aI335
aI292
aI92
aI219
aI61
aI0
aI227
aI75
aI184
aI289
aI356
aI6
aI240
aI291
aI123
aI82
aI80
aI180
aI167
aI248
aI19
aI259
aI347
aI257
aI204
aI112
aI247
aI0
aI355
aI333
aI180
aI290
aI96
aI331
aI49
aI326
aI254
aI17
aI0
aI252
aI348
aI135
aI111
aI322
aI191
aI261
aI354
aI201
aI226
aI105
aI264
aI174
aI165
aI205
aI353
aI104
aI190
aI248
aI189
aI29
aI38
aI285
aI107
aI93
aI16
aI24
aI135
aI183
aI23
aI167
aI31
aI263
aI193
aI248
aI139
aI292
aI312
aI185
aI336
aI319
aI52
aI299
aI277
aI215
aI17
aI258
aI323
aI297
aI267
aI220
aI344
aI173
aI36
aI97
aI209
aI87
aI155
aI306
aI230
aI259
aI57
aI206
aI269
aI41
aI198
aI165
aI195
aI131
aI138
aI255
aI255
aI222
aI352
aI304
aI286
aI321
aI112
aI278
aI263
aI315
aI274
aI194
aI35
aI139
aI311
aI107
aI36
aI24
aI351
aI0
aI323
aI69
aI348
aI79
aI86
aI189
aI72
aI270
aI180
aI178
aI170
aI27
aI28
aI180
aI22
aI180
aI274
aI34
aI51
aI81
aI227
aI185
aI325
aI271
aI126
aI173
aI78
aI122
aI7
aI348
aI320
aI178
aI287
aI252
aI341
aI265
aI19
aI230
aI24
aI31
aI202
aI335
aI330
aI189
aI42
aI251
aI346
aI282
aI182
aI288
aI155
aI354
aI45
aI121
aI277
aI0
aI333
aI24
aI0
aI343
aI325
aI136
aI263
aI0
aI247
aI297
aI80
aI67
aI350
aI13
aI242
aI293
aI43
aI246
aI343
aI202
aI337
aI181
aI111
aI207
aI143
aI30
aI338
aI82
aI297
aI17
aI42
aI16
aI177
aI0
aI15
aI2
aI306
aI112
aI121
aI274
aI286
aI252
aI87
aI205
aI264
aI0
aI17
aI0
aI333
aI12
aI7
aI7
aI28
aI246
aI247
aI262
aI161
aI0
aI0
aI68
aI267
aI14
aI112
aI241
aI63
aI188
aI189
aI12
aI269
aI79
aI347
aI333
aI344
aI156
aI178
aI196
aI214
aI0
aI162
aI208
aI221
aI142
aI324
aI312
aI112
aI162
aI212
aI35
aI3
aI27
aI331
aI206
aI125
aI295
aI289
aI183
aI184
aI45
aI72
aI63
aI90
aI124
aI90
aI273
aI320
aI337
aI348
aI334
aI247
aI1
aI267
aI327
aI328
aI0
aI267
aI345
aI174
aI39
aI166
aI349
aI22
aI15
aI110
aI255
aI0
aI174
aI321
aI156
aI202
aI247
aI112
aI164
aI77
aI163
aI317
aI180
aI74
aI8
aI332
aI92
aI330
aI335
aI198
aI157
aI262
aI64
aI21
aI74
aI56
aI203
aI27
aI167
aI99
aI313
aI348
aI0
aI300
aI201
aI348
aI320
aI18
aI308
aI131
aI285
aI17
aI199
aI164
aI312
aI37
aI211
aI211
aI297
aI344
aI313
aI213
aI191
aI1
aI9
aI135
aI144
aI160
aI292
aI0
aI7
aI280
aI280
aI265
aI162
aI166
aI57
aI156
aI265
aI331
aI228
aI201
aI176
aI210
aI32
aI107
aI287
aI21
aI158
aI266
aI115
aI94
aI313
aI161
aI21
aI14
aI266
aI236
aI218
aI247
aI74
aI199
aI274
aI30
aI53
aI157
aI190
aI199
aI17
aI330
aI336
aI353
aI349
aI341
aI1
aI174
aI340
aI152
aI247
aI55
aI102
aI197
aI272
aI351
aI92
aI321
aI111
aI18
aI297
aI96
aI326
aI169
aI317
aI328
aI350
aI291
aI318
aI52
aI277
aI48
aI23
aI20
aI154
aI40
aI4
aI292
aI310
aI212
aI270
aI103
aI315
aI130
aI302
aI74
aI194
aI189
aI157
aI2
aI259
aI34
aI227
aI60
aI55
aI14
aI36
aI305
aI218
aI306
aI195
aI0
aI185
aI357
aI62
aI266
aI270
aI349
aI344
aI331
aI102
aI353
aI17
aI0
aI72
aI82
aI58
aI172
aI160
aI165
aI28
aI305
aI107
aI302
aI150
aI28
aI141
aI3
aI79
aI107
aI351
aI313
aI42
aI45
aI206
aI200
aI77
aI165
aI37
aI58
aI277
aI207
aI33
aI329
aI247
aI47
aI272
aI99
aI355
aI355
aI83
aI223
aI172
aI12
aI36
aI342
aI329
aI73
aI222
aI267
aI345
aI50
aI229
aI322
aI165
aI117
aI262
aI167
aI38
aI82
aI247
aI112
aI191
aI183
aI26
aI20
aI95
aI16
aI31
aI143
aI36
aI29
aI303
aI168
aI344
aI343
aI47
aI15
aI141
aI236
aI30
aI88
aI8
aI146
aI247
aI287
aI343
aI179
aI229
aI157
aI224
aI288
aI51
aI73
aI192
aI8
aI312
aI6
aI96
aI235
aI301
aI132
aI231
aI87
aI143
aI152
aI292
aI164
aI333
aI297
aI2
aI224
aI28
aI185
aI227
aI150
aI270
aI115
aI153
aI111
aI284
aI120
aI78
aI27
aI27
aI140
aI42
aI247
aI287
aI141
aI331
aI247
aI174
aI323
aI48
aI348
aI307
aI336
aI310
aI306
aI93
aI179
aI334
aI186
aI86
aI36
aI352
aI338
aI247
aI56
aI192
aI0
aI337
aI228
aI44
aI8
aI56
aI247
aI185
aI112
aI179
aI213
aI146
aI314
aI9
aI248
aI199
aI180
aI30
aI332
aI157
aI9
aI205
aI193
aI128
aI67
aI21
aI125
aI205
aI184
aI150
aI77
aI310
aI41
aI346
aI324
aI314
aI225
aI67
aI11
aI179
aI117
aI220
aI33
aI239
aI179
aI208
aI42
aI211
aI23
aI247
aI65
aI213
aI19
aI60
aI339
aI218
aI104
aI12
aI219
aI58
aI25
aI336
aI222
aI322
aI306
aI256
aI300
aI336
aI341
aI253
aI188
aI356
aI0
aI186
aI103
aI176
aI122
aI316
aI70
aI198
aI106
aI45
aI80
aI312
aI85
aI257
aI21
aI50
aI24
aI77
aI189
aI194
aI294
aI79
aI338
aI337
aI51
aI166
aI297
aI35
aI0
aI336
aI73
aI0
aI34
aI308
aI107
aI125
aI309
aI77
aI33
aI178
aI322
aI355
aI72
aI46
aI90
aI332
aI114
aI297
aI146
aI26
aI321
aI34
asS'bottle'
p28
(lp29
I0
aI0
aI0
aI0
aI21
aI0
aI0
aI0
aI0
aI0
aI4
aI0
aI0
aI0
aI0
aI0
aI2
aI0
aI0
aI0
aI0
aI0
aI1
aI0
aI0
aI1
aI0
aI0
aI0
aI0
aI0
aI0
aI0
aI0
aI3
aI0
aI0
aI7
aI0
aI0
aI0
aI0
aI0
aI2
aI0
aI9
aI0
aI6
aI0
aI0
aI0
aI0
aI0
aI0
aI20
aI0
aI0
aI0
aI0
aI0
aI0
aI9
aI19
aI0
aI0
aI0
aI2
aI0
aI0
aI0
aI4
aI0
aI0
aI0
aI0
aI0
aI0
aI0
aI9
aI2
aI0
aI4
aI8
aI0
aI0
aI0
aI3
aI0
aI13
aI22
aI22
aI6
aI0
aI0
aI0
aI8
aI0
aI301
aI0
aI0
aI0
aI0
aI2
aI0
aI0
aI0
aI2
aI0
aI0
aI0
aI0
aI0
aI7
aI6
aI0
aI0
aI0
aI0
aI0
aI0
aI0
aI0
aI0
aI0
aI0
aI0
aI0
aI0
aI2
aI0
aI0
aI0
aI0
aI0
aI0
aI5
aI0
aI0
aI7
aI0
aI1
aI0
aI0
aI0
aI0
aI0
aI6
aI0
aI3
aI0
aI1
aI0
aI0
aI0
aI13
aI3
aI0
aI0
aI0
aI0
aI0
aI0
aI1
aI0
aI22
aI0
aI0
aI11
aI0
aI12
aI0
aI6
aI5
aI22
aI0
aI0
aI0
aI0
aI0
aI0
aI0
aI0
aI0
aI0
aI2
aI0
aI0
aI2
aI0
aI0
aI0
aI0
aI0
aI0
aI0
aI1
aI0
aI14
aI21
aI20
aI2
aI0
aI15
aI11
aI0
aI0
aI3
aI0
aI0
aI22
aI0
aI11
aI3
aI0
aI0
aI4
aI0
aI0
aI4
aI0
aI9
aI0
aI0
aI0
aI1
aI0
aI0
aI9
aI11
aI0
aI0
aI0
aI0
aI0
aI0
aI0
aI0
aI0
aI0
aI11
aI0
aI0
aI0
aI0
aI0
aI0
aI0
aI0
aI0
aI7
aI0
aI0
aI0
aI0
aI0
aI7
aI1
aI0
aI0
aI0
aI0
aI0
aI0
aI0
aI0
aI10
aI0
aI0
aI7
aI0
aI0
aI0
aI6
aI0
aI11
aI0
aI3
aI0
aI5
aI0
aI0
aI0
aI0
aI11
aI2
aI0
aI14
aI0
aI11
aI0
aI12
aI0
aI6
aI0
aI0
aI0
aI22
aI2
aI2
aI3
aI0
aI0
aI0
aI15
aI1
aI0
aI0
aI0
aI0
aI22
aI7
aI0
aI3
aI0
aI0
aI0
aI0
aI0
aI0
aI2
aI0
aI0
aI0
aI0
aI7
aI0
aI0
aI0
aI1
aI0
aI0
aI0
aI0
aI0
aI0
aI2
aI0
aI3
aI0
aI0
aI0
aI0
aI0
aI0
aI0
aI0
aI13
aI0
aI0
aI6
aI13
aI21
aI0
aI0
aI0
aI0
aI0
aI0
aI0
aI0
aI0
aI0
aI0
aI0
aI0
aI4
aI0
aI0
aI0
aI0
aI0
aI22
aI0
aI5
aI10
aI0
aI0
aI20
aI0
aI4
aI0
aI14
aI0
aI7
aI0
aI22
aI0
aI0
aI10
aI0
aI0
aI0
aI3
aI17
aI0
aI0
aI0
aI0
aI0
aI0
aI0
aI0
aI0
aI0
aI1
aI0
aI1
aI12
aI0
aI0
aI0
aI10
aI2
aI0
aI0
aI0
aI3
aI15
aI2
aI0
aI0
aI0
aI0
aI0
aI5
aI6
aI0
aI0
aI12
aI0
aI0
aI0
aI4
aI2
aI10
aI5
aI0
aI0
aI0
aI0
aI0
aI18
aI1
aI0
aI0
aI3
aI17
aI0
aI2
aI0
aI0
aI2
aI0
aI0
aI0
aI22
aI0
aI0
aI0
aI0
aI7
aI0
aI0
aI0
aI0
aI0
aI14
aI14
aI10
aI0
aI0
aI6
aI0
aI0
aI0
aI0
aI0
aI0
aI0
aI0
aI14
aI0
aI22
aI0
aI0
aI5
aI0
aI13
aI0
aI0
aI13
aI0
aI8
aI0
aI0
aI0
aI10
aI0
aI5
aI0
aI0
aI0
aI2
aI0
aI3
aI0
aI0
aI0
aI0
aI0
aI0
aI0
aI1
aI1
aI0
aI0
aI0
aI5
aI0
aI0
aI0
aI0
aI0
aI0
aI8
aI5
aI3
aI0
aI11
aI0
aI0
aI2
aI0
aI0
aI7
aI0
aI1
aI0
aI0
aI0
aI0
aI0
aI0
aI0
aI0
aI0
aI1
aI11
aI11
aI6
aI0
aI0
aI0
aI0
aI0
aI0
aI0
aI0
aI0
aI0
aI0
aI0
aI0
aI0
aI0
aI0
aI0
aI0
aI0
aI0
aI0
aI2
aI0
aI0
aI0
aI2
aI0
aI0
aI1
aI0
aI0
aI0
aI3
aI0
aI0
aI0
aI0
aI0
aI0
aI18
aI0
aI12
aI0
aI0
aI1
aI0
aI0
aI0
aI0
aI4
aI0
aI0
aI2
aI0
aI1
aI0
aI4
aI0
aI0
aI0
aI0
aI0
aI0
aI0
aI0
aI0
aI0
aI0
aI0
aI0
aI5
aI5
aI0
aI0
aI0
aI0
aI0
aI0
aI0
aI0
aI0
aI3
aI0
aI0
aI1
aI8
aI10
aI12
aI0
aI0
aI0
aI0
aI0
aI0
aI0
aI0
aI10
aI3
aI0
aI0
aI0
aI0
aI0
aI0
aI13
aI0
aI0
aI0
aI0
aI0
aI0
aI2
aI0
aI1
aI2
aI1
aI5
aI2
aI0
aI0
aI22
aI22
aI0
aI0
aI0
aI0
aI0
aI0
aI4
aI22
aI0
aI0
aI8
aI0
aI0
aI0
aI0
aI0
aI0
aI11
aI1
aI0
aI0
aI0
aI0
aI22
aI22
aI0
aI0
aI0
aI3
aI2
aI0
aI0
aI0
aI13
aI17
aI0
aI1
aI0
aI0
aI0
aI0
aI17
aI8
aI0
aI0
aI1
aI0
aI0
aI0
aI0
aI0
aI8
aI0
aI22
aI0
aI0
aI0
aI2
aI0
aI0
aI22
aI22
aI22
aI14
aI0
aI0
aI0
aI0
aI0
aI0
aI5
aI0
aI0
aI1
aI0
aI0
aI0
aI1
aI6
aI0
aI2
aI2
aI0
aI0
aI2
aI3
aI2
aI0
aI0
aI14
aI0
aI0
aI1
aI4
aI0
aI4
aI15
aI0
aI0
aI0
aI3
aI0
aI6
aI0
aI2
aI0
aI0
aI9
aI11
aI9
aI77
aI0
aI2
aI3
aI0
aI4
aI0
aI4
aI0
aI0
aI345
aI8
aI1
aI3
aI0
aI0
aI0
aI3
aI8
aI7
aI10
aI0
aI0
aI3
aI0
aI5
aI2
aI22
aI0
aI0
aI0
aI3
aI0
aI2
aI22
aI0
aI1
aI0
aI1
aI3
aI3
aI0
aI22
aI11
aI0
aI1
aI4
aI0
aI2
aI6
aI0
aI0
aI8
aI0
aI1
aI0
aI17
aI18
aI3
aI0
aI3
aI0
aI2
aI2
aI0
aI3
aI2
aI2
aI7
aI0
aI0
aI3
aI2
aI0
aI5
aI3
aI0
aI0
aI0
aI0
aI3
aI0
aI0
aI0
aI2
aI2
aI0
aI348
aI3
aI0
aI5
aI0
aI9
aI0
aI2
aI37
aI0
aI0
aI4
aI6
aI1
aI1
aI3
aI3
aI0
aI6
aI1
aI0
aI0
aI0
aI5
aI0
aI0
aI3
aI0
aI0
aI0
aI3
aI0
aI1
aI22
aI0
aI22
aI0
aI0
aI0
aI3
aI2
aI4
aI3
aI16
aI0
aI0
aI7
aI5
aI5
aI5
aI3
aI0
aI5
aI0
aI0
aI2
aI2
aI0
aI0
aI0
aI0
aI1
aI45
aI5
aI0
aI0
aI1
aI2
aI0
aI8
aI28
aI2
aI14
aI0
aI1
aI0
aI1
aI4
aI1
aI0
aI3
aI9
aI5
aI0
aI0
aI2
aI21
aI0
aI0
aI1
aI1
aI1
aI0
aI8
aI4
aI2
aI2
aI0
aI1
aI2
aI22
aI4
aI1
aI2
aI2
aI1
aI1
aI7
aI5
aI2
aI0
aI1
aI3
aI3
aI4
aI1
aI7
aI0
aI1
aI11
aI3
aI3
aI0
aI2
aI5
aI354
aI0
aI0
aI3
aI3
aI3
aI0
aI3
aI0
aI350
aI5
aI0
aI3
aI0
aI0
aI0
aI0
aI2
aI0
aI1
aI1
aI7
aI0
aI9
aI1
aI5
aI3
aI1
aI0
aI1
aI8
aI2
aI350
aI3
aI0
aI5
aI0
aI0
aI0
aI0
aI1
aI5
aI1
aI1
aI3
aI7
aI0
aI0
aI0
aI7
aI5
aI0
aI7
aI0
aI7
aI0
aI1
aI0
aI2
aI0
aI18
aI18
aI1
aI0
aI2
aI0
aI2
aI0
aI2
aI3
aI0
aI0
aI0
aI1
aI4
aI0
aI0
aI0
aI1
aI0
aI1
aI0
aI3
aI5
aI1
aI0
aI0
aI2
aI8
aI1
aI0
aI0
aI0
aI0
aI0
aI0
aI0
aI324
aI2
aI0
aI0
aI1
aI3
aI4
aI0
aI0
aI4
aI0
aI4
aI0
aI0
aI2
aI0
aI5
aI1
aI3
aI5
aI0
aI0
aI1
aI1
aI21
aI3
aI0
aI4
aI17
aI3
aI2
aI0
aI3
aI0
aI2
aI0
aI0
aI328
aI0
aI0
aI3
aI0
aI4
aI5
aI0
aI0
aI7
aI2
aI3
aI0
aI1
aI2
aI0
aI8
aI0
aI0
aI0
aI1
aI0
aI3
aI4
aI4
aI12
aI0
aI1
aI4
aI0
aI0
aI5
aI15
aI0
aI3
aI5
aI1
aI0
aI1
aI1
aI1
aI4
aI0
aI359
aI7
aI3
aI2
aI3
aI22
aI1
aI0
aI3
aI4
aI3
aI0
aI0
aI6
aI0
aI1
aI0
aI0
aI0
aI0
aI3
aI0
aI0
aI340
aI0
aI13
aI1
aI2
aI0
aI3
aI4
aI4
aI0
aI2
aI2
aI1
aI15
aI0
aI1
aI0
aI0
aI0
aI0
aI2
aI0
aI0
aI0
aI1
aI0
aI56
aI0
aI3
aI0
aI3
aI22
aI3
aI0
aI3
aI0
aI2
aI0
aI2
aI0
aI0
aI0
aI0
aI0
aI1
aI0
aI0
aI0
aI1
aI0
aI4
aI0
aI0
aI2
aI6
aI0
aI0
aI2
aI20
aI0
aI2
aI0
aI5
aI6
aI2
aI2
aI2
aI0
aI0
aI2
aI0
aI2
aI0
aI4
aI5
aI1
aI12
aI3
aI3
aI5
aI9
aI2
aI0
aI1
aI0
aI0
aI1
aI1
aI1
aI1
aI0
aI2
aI4
aI22
aI3
aI4
aI2
aI8
aI1
aI0
aI0
aI1
aI14
aI5
aI0
aI0
aI5
aI0
aI0
aI0
aI0
aI2
aI0
aI2
aI2
aI1
aI0
aI0
aI3
aI0
aI3
aI3
aI0
aI1
aI5
aI0
aI4
aI5
aI0
aI22
aI0
aI0
aI5
aI0
aI0
aI0
aI13
aI0
aI3
aI0
aI2
aI0
aI1
aI0
aI0
aI312
aI0
aI0
aI0
aI1
aI0
aI82
aI1
aI0
aI0
aI1
aI0
aI5
aI1
aI1
aI0
aI2
aI0
aI2
aI1
aI0
aI3
aI0
aI0
aI0
aI2
aI4
aI0
aI1
aI0
aI3
aI0
aI0
aI21
aI2
aI0
aI2
aI359
aI1
aI0
aI0
aI0
aI0
aI22
aI312
aI0
aI0
aI7
aI13
aI12
aI4
aI3
aI3
aI11
aI3
aI6
aI2
aI1
aI0
aI6
aI2
aI1
aI0
aI0
aI1
aI0
aI0
aI4
aI5
aI0
aI15
aI1
aI1
aI0
aI4
aI0
aI0
aI1
aI2
aI1
aI0
aI22
aI4
aI0
aI4
aI15
aI2
aI4
aI5
aI0
aI11
aI5
aI2
aI0
aI0
aI1
aI0
aI1
aI2
aI0
aI8
aI0
aI0
aI0
aI1
aI3
aI16
aI0
aI0
aI2
aI1
aI2
aI0
aI18
aI0
aI0
aI2
aI0
aI2
aI1
aI5
aI14
aI0
aI0
aI0
aI2
aI14
aI2
aI0
aI1
aI0
aI22
aI3
aI0
aI7
aI3
aI2
aI0
aI3
aI0
aI0
aI0
aI2
aI0
aI0
aI4
aI0
aI1
aI0
aI2
aI8
aI2
aI0
aI0
aI0
aI0
aI0
aI2
aI0
aI0
aI0
aI0
aI0
aI0
aI0
aI20
aI3
aI2
aI3
aI6
aI0
aI0
aI2
aI2
aI2
aI0
aI2
aI5
aI1
aI1
aI0
aI3
aI0
aI0
aI0
aI1
aI1
aI0
aI2
aI0
aI8
aI6
aI3
aI5
aI0
aI3
aI0
aI2
aI0
aI0
aI0
aI0
aI0
aI2
aI0
aI5
aI5
aI6
aI0
aI3
aI4
aI4
aI3
aI47
aI0
aI5
aI4
aI0
aI1
aI3
aI3
aI3
aI4
aI10
aI1
aI0
aI333
aI0
aI3
aI1
aI2
aI22
aI0
aI22
aI0
aI0
aI8
aI8
aI11
aI1
aI16
aI0
aI1
aI3
aI1
aI0
aI15
aI0
aI0
aI9
aI4
aI2
aI4
aI0
aI2
aI0
aI16
aI1
aI6
aI2
aI2
aI3
aI0
aI0
aI0
aI2
aI0
aI0
aI1
aI4
aI3
aI0
aI0
aI0
aI3
aI1
aI5
aI359
aI5
aI0
aI0
aI3
aI0
aI22
aI22
aI3
aI0
aI3
aI0
aI0
aI0
aI0
aI0
aI0
aI4
aI0
aI1
aI0
aI344
aI2
aI2
aI4
aI0
aI0
aI0
aI0
aI1
aI4
aI1
aI1
aI7
aI0
aI0
aI0
aI1
aI2
aI9
aI1
aI1
aI21
aI0
aI0
aI0
aI1
aI0
aI334
aI0
aI0
aI4
aI0
aI1
aI0
aI3
aI5
aI359
aI0
aI4
aI0
aI0
aI1
aI0
aI0
aI0
aI0
aI3
aI3
aI2
aI0
aI0
aI3
aI0
aI3
aI2
aI0
aI0
aI8
aI3
aI7
aI0
aI1
aI0
aI3
aI0
aI22
aI3
aI0
aI0
aI2
aI0
aI0
aI0
aI2
aI5
aI0
aI7
aI1
aI2
aI6
aI10
aI4
aI0
aI2
aI1
aI0
aI4
aI0
aI2
aI0
aI3
aI335
aI2
aI95
aI0
aI16
aI5
aI0
aI0
aI0
aI1
aI6
aI0
aI0
aI0
aI0
aI5
aI6
aI6
aI11
aI0
aI3
aI0
aI0
aI1
aI4
aI2
aI4
aI3
aI0
aI0
aI1
aI0
aI356
aI0
aI6
aI0
aI3
aI0
aI0
aI2
aI0
aI0
aI0
aI0
aI0
aI323
aI0
aI2
aI0
aI0
aI4
aI3
aI3
aI0
aI348
aI7
aI3
aI8
aI0
aI2
aI0
aI1
aI0
aI3
aI5
aI9
aI0
aI4
aI0
aI0
aI0
aI0
aI0
aI0
aI0
aI3
aI4
aI8
aI2
aI7
aI2
aI3
aI345
aI1
aI22
aI4
aI2
aI0
aI1
aI320
aI0
aI10
aI0
aI3
aI0
aI0
aI1
aI2
aI0
aI0
aI2
aI2
aI0
aI0
aI0
aI7
aI5
aI1
aI0
aI0
aI1
aI4
aI0
aI0
aI0
aI0
aI8
aI7
aI6
aI0
aI9
aI2
aI3
aI5
aI8
aI0
aI1
aI22
aI2
aI0
aI2
aI6
aI1
aI1
aI0
aI355
aI0
aI11
aI0
aI0
aI1
aI0
aI1
aI3
aI7
aI0
aI0
aI1
aI0
aI5
aI1
aI353
aI6
aI0
aI3
aI1
aI0
aI22
aI2
aI4
aI0
aI0
aI5
aI0
aI2
aI0
aI1
aI6
aI0
aI0
aI0
aI6
aI0
aI0
aI0
aI0
aI0
aI6
aI4
aI1
aI1
aI3
aI0
aI0
aI2
aI0
aI3
aI3
aI0
aI1
aI2
aI0
aI4
aI1
aI0
aI0
aI0
aI3
aI5
aI2
aI0
aI0
aI4
aI22
aI0
aI2
aI0
aI0
aI1
aI3
aI2
aI0
aI0
aI1
aI4
aI2
aI0
aI22
aI0
aI3
aI0
aI0
aI0
aI4
aI10
aI4
aI0
aI0
aI1
aI2
aI19
aI0
aI5
aI359
aI0
aI4
aI1
aI0
aI0
aI22
aI0
aI0
aI0
aI2
aI0
aI3
aI0
aI4
aI0
aI2
aI3
aI0
aI4
aI8
aI2
aI3
aI19
aI10
aI4
aI6
aI1
aI4
aI4
aI2
aI2
aI0
aI1
aI4
aI2
aI8
aI0
aI0
aI2
aI1
aI0
aI0
aI4
aI3
aI349
aI3
aI1
aI343
aI3
aI2
aI3
aI0
aI0
aI6
aI0
aI2
aI6
aI0
aI2
aI339
aI0
aI349
aI0
aI5
aI0
aI0
aI1
aI0
aI5
aI0
aI0
aI1
aI0
aI2
aI1
aI0
aI1
aI0
aI0
aI1
aI3
aI2
aI4
aI4
aI0
aI0
aI0
aI0
aI5
aI0
aI14
aI4
aI2
aI0
aI1
aI4
aI1
aI1
aI4
aI4
aI0
aI1
aI0
aI0
aI2
aI0
aI0
aI22
aI0
aI2
aI0
aI0
aI1
aI2
aI0
aI0
aI0
aI6
aI0
aI3
aI4
aI2
aI2
aI2
aI0
aI0
aI0
aI2
aI0
aI7
aI1
aI2
aI2
aI0
aI22
aI0
aI0
aI5
aI14
aI0
aI1
aI5
aI0
aI0
aI4
aI22
aI354
aI4
aI3
aI0
aI13
aI0
aI22
aI314
aI0
aI0
aI0
aI1
aI0
aI4
aI3
aI2
aI0
aI5
aI12
aI4
aI3
aI0
aI1
aI0
aI3
aI2
aI343
aI1
aI2
aI6
aI4
aI0
aI322
aI2
aI0
aI0
aI0
aI6
aI2
aI0
aI346
aI0
aI0
aI0
aI2
aI8
aI2
aI4
aI0
aI8
aI2
aI0
aI1
aI0
aI0
aI0
aI0
aI3
aI0
aI0
aI1
aI2
aI0
aI1
aI0
aI0
aI22
aI0
aI0
aI3
aI1
aI0
aI0
aI4
aI9
aI34
aI22
aI0
aI0
aI3
aI3
aI7
aI1
aI6
aI3
aI351
aI347
aI22
aI20
aI18
aI1
aI2
aI0
aI0
aI0
aI0
aI0
aI0
aI2
aI2
aI2
aI3
aI0
aI0
aI3
aI2
aI0
aI0
aI0
aI0
aI15
aI3
aI7
aI0
aI0
aI2
aI1
aI3
aI2
aI4
aI1
aI0
aI2
aI9
aI0
aI0
aI1
aI3
aI0
aI0
aI0
aI0
aI0
aI7
aI17
aI3
aI0
aI0
aI0
aI1
aI7
aI1
aI6
aI2
aI4
aI0
aI0
aI0
aI0
aI1
aI2
aI1
aI0
aI0
aI0
aI0
aI2
aI3
aI0
aI30
aI3
aI4
aI3
aI2
aI2
aI0
aI1
aI1
asS'car'
p30
(lp31
I100
aI180
aI3
aI186
aI34
aI17
aI14
aI355
aI330
aI300
aI0
aI255
aI2
aI283
aI46
aI216
aI216
aI205
aI200
aI200
aI52
aI95
aI255
aI189
aI182
aI181
aI13
aI0
aI9
aI66
aI255
aI16
aI44
aI44
aI173
aI357
aI356
aI0
aI129
aI164
aI181
aI182
aI299
aI212
aI141
aI33
aI194
aI193
aI210
aI178
aI353
aI325
aI23
aI33
aI10
aI25
aI272
aI10
aI111
aI191
aI205
aI209
aI223
aI171
aI1
aI355
aI354
aI0
aI125
aI332
aI29
aI15
aI285
aI157
aI347
aI70
aI81
aI117
aI289
aI242
aI52
aI27
aI170
aI162
aI177
aI178
aI182
aI185
aI173
aI207
aI152
aI349
aI147
aI330
aI143
aI163
aI159
aI265
aI285
aI280
aI155
aI0
aI340
aI285
aI243
aI226
aI252
aI305
aI295
aI90
aI287
aI43
aI62
aI329
aI3
aI245
aI345
aI178
aI259
aI8
aI0
aI333
aI110
aI111
aI275
aI80
aI352
aI151
aI215
aI52
aI140
aI21
aI352
aI345
aI328
aI243
aI70
aI336
aI1
aI5
aI340
aI0
aI163
aI330
aI71
aI102
aI7
aI130
aI18
aI280
aI338
aI315
aI33
aI21
aI5
aI5
aI10
aI0
aI3
aI12
aI43
aI144
aI160
aI320
aI10
aI48
aI313
aI182
aI4
aI8
aI33
aI32
aI2
aI160
aI0
aI297
aI302
aI4
aI280
aI193
aI239
aI339
aI0
aI189
aI236
aI246
aI285
aI115
aI100
aI117
aI325
aI141
aI190
aI57
aI39
aI125
aI170
aI50
aI0
aI244
aI35
aI0
aI186
aI187
aI183
aI185
aI6
aI194
aI237
aI205
aI270
aI17
aI36
aI300
aI5
aI180
aI30
aI1
aI328
aI195
aI335
aI106
aI69
aI318
aI140
aI71
aI110
aI172
aI166
aI335
aI216
aI185
aI0
aI1
aI105
aI4
aI187
aI0
aI182
aI187
aI140
aI90
aI187
aI149
aI340
aI348
aI300
aI22
aI355
aI234
aI107
aI255
aI151
aI128
aI146
aI152
aI150
aI341
aI326
aI13
aI25
aI192
aI139
aI305
aI331
aI351
aI315
aI7
aI350
aI0
aI200
aI188
aI185
aI5
aI344
aI68
aI44
aI15
aI39
aI23
aI273
aI315
aI105
aI273
aI68
aI191
aI185
aI185
aI172
aI248
aI230
aI21
aI10
aI274
aI72
aI354
aI0
aI15
aI351
aI35
aI90
aI94
aI91
aI67
aI33
aI90
aI170
aI317
aI350
aI177
aI187
aI212
aI49
aI61
aI199
aI150
aI153
aI352
aI37
aI187
aI180
aI110
aI95
aI0
aI15
aI181
aI209
aI16
aI3
aI245
aI78
aI276
aI122
aI65
aI22
aI192
aI238
aI355
aI178
aI42
aI331
aI150
aI154
aI253
aI43
aI59
aI62
aI308
aI215
aI35
aI182
aI357
aI0
aI10
aI349
aI312
aI34
aI90
aI136
aI354
aI0
aI149
aI8
aI15
aI45
aI180
aI158
aI75
aI286
aI297
aI292
aI298
aI20
aI10
aI192
aI132
aI236
aI249
aI82
aI270
aI270
aI240
aI307
aI102
aI5
aI314
aI18
aI169
aI90
aI37
aI40
aI40
aI195
aI183
aI46
aI51
aI52
aI33
aI240
aI228
aI1
aI0
aI128
aI142
aI139
aI10
aI43
aI107
aI15
aI31
aI348
aI50
aI46
aI65
aI230
aI226
aI175
aI196
aI118
aI200
aI195
aI192
aI191
aI55
aI310
aI1
aI150
aI1
aI165
aI220
aI246
aI188
aI224
aI264
aI110
aI265
aI91
aI26
aI60
aI203
aI194
aI302
aI240
aI220
aI314
aI72
aI90
aI75
aI325
aI317
aI274
aI290
aI25
aI294
aI5
aI315
aI346
aI0
aI270
aI283
aI346
aI337
aI318
aI219
aI25
aI211
aI270
aI178
aI177
aI81
aI159
aI347
aI29
aI46
aI183
aI167
aI330
aI170
aI339
aI140
aI0
aI106
aI182
aI145
aI238
aI212
aI339
aI225
aI15
aI84
aI320
aI161
aI162
aI343
aI30
aI297
aI111
aI292
aI4
aI236
aI142
aI150
aI339
aI344
aI172
aI266
aI333
aI188
aI194
aI208
aI188
aI356
aI0
aI156
aI152
aI334
aI231
aI214
aI112
aI83
aI201
aI60
aI31
aI135
aI121
aI247
aI192
aI348
aI284
aI185
aI79
aI80
aI76
aI115
aI109
aI286
aI190
aI195
aI25
aI321
aI320
aI190
aI193
aI21
aI41
aI45
aI57
aI172
aI127
aI121
aI128
aI114
aI71
aI171
aI100
aI342
aI0
aI42
aI115
aI143
aI146
aI127
aI133
aI12
aI17
aI265
aI286
aI30
aI13
aI190
aI4
aI195
aI64
aI195
aI160
aI344
aI63
aI277
aI170
aI175
aI133
aI102
aI29
aI70
aI220
aI250
aI0
aI129
aI160
aI309
aI130
aI352
aI0
aI338
aI9
aI304
aI219
aI177
aI54
aI178
aI150
aI144
aI153
aI174
aI171
aI163
aI163
aI143
aI130
aI130
aI3
aI167
aI65
aI66
aI149
aI61
aI218
aI240
aI245
aI333
aI204
aI235
aI186
aI16
aI355
aI5
aI130
aI332
aI320
aI32
aI329
aI245
aI90
aI80
aI112
aI57
aI90
aI86
aI75
aI87
aI70
aI64
aI352
aI349
aI10
aI19
aI177
aI322
aI54
aI43
aI342
aI324
aI95
aI258
aI353
aI59
aI271
aI59
aI334
aI75
aI60
aI50
aI61
aI46
aI80
aI25
aI349
aI22
aI186
aI187
aI100
aI177
aI180
aI20
aI5
aI88
aI69
aI94
aI47
aI24
aI29
aI11
aI336
aI327
aI160
aI173
aI160
aI78
aI347
aI140
aI27
aI287
aI295
aI340
aI178
aI5
aI180
aI31
aI75
aI334
aI0
aI344
aI339
aI339
aI340
aI352
aI355
aI261
aI0
aI148
aI279
aI3
aI6
aI3
aI270
aI270
aI206
aI10
aI134
aI339
aI69
aI7
aI227
aI240
aI215
aI209
aI208
aI83
aI335
aI335
aI344
aI115
aI58
aI295
aI350
aI293
aI31
aI5
aI90
aI300
aI108
aI108
aI351
aI0
aI0
aI263
aI250
aI0
aI350
aI108
aI156
aI150
aI170
aI19
aI14
aI180
aI37
aI137
aI182
aI345
aI61
aI14
aI100
aI10
aI10
aI14
aI9
aI20
aI31
aI30
aI65
aI50
aI240
aI205
aI192
aI208
aI8
aI213
aI0
aI19
aI162
aI225
aI204
aI115
aI32
aI28
aI53
aI60
aI219
aI234
aI50
aI35
aI74
aI249
aI292
aI155
aI168
aI68
aI247
aI95
aI110
aI112
aI122
aI29
aI195
aI125
aI245
aI275
aI4
aI10
aI30
aI124
aI221
aI45
aI293
aI222
aI230
aI255
aI16
aI60
aI207
aI234
aI200
aI185
aI345
aI123
aI50
aI69
aI235
aI75
aI280
aI338
aI102
aI1
aI105
aI216
aI65
aI70
aI100
aI306
aI178
aI42
aI19
aI123
aI124
aI146
aI166
aI169
aI332
aI160
aI165
aI14
aI14
aI15
aI13
aI15
aI11
aI11
aI9
aI185
aI90
aI270
aI210
aI149
aI141
aI172
aI173
aI172
aI175
aI180
aI165
aI182
aI336
aI213
aI254
aI30
aI4
aI295
aI181
aI180
aI5
aI95
aI15
aI155
aI161
aI165
aI136
aI330
aI55
aI81
aI3
aI137
aI119
aI314
aI355
aI205
aI29
aI18
aI35
aI219
aI135
aI130
aI270
aI292
aI12
aI5
aI0
aI0
aI0
aI61
aI235
aI234
aI295
aI243
aI347
aI268
aI74
aI220
aI304
aI30
aI178
aI3
aI53
aI135
aI305
aI341
aI343
aI129
aI146
aI163
aI0
aI270
aI200
aI38
aI60
aI355
aI5
aI0
aI0
aI172
aI170
aI169
aI168
aI347
aI289
aI315
aI317
aI323
aI209
aI190
aI62
aI328
aI295
aI181
aI15
aI10
aI216
aI341
aI306
aI315
aI314
aI166
aI5
aI7
aI0
aI318
aI265
aI172
aI155
aI149
aI27
aI18
aI145
aI81
aI51
aI32
aI343
aI25
aI14
aI31
aI22
aI198
aI195
aI190
aI187
aI194
aI185
aI128
aI155
aI15
aI25
aI3
aI350
aI10
aI5
aI181
aI180
aI338
aI157
aI180
aI180
aI292
aI175
aI192
aI75
aI214
aI47
aI58
aI233
aI314
aI179
aI83
aI278
aI57
aI25
aI0
aI3
aI19
aI9
aI309
aI303
aI290
aI305
aI79
aI328
aI310
aI191
aI76
aI292
aI33
aI341
aI145
aI309
aI221
aI319
aI37
aI310
aI17
aI217
aI253
aI143
aI21
aI30
aI329
aI180
aI175
aI177
aI327
aI300
aI206
aI320
aI349
aI145
aI311
aI326
aI240
aI335
aI300
aI173
aI160
aI354
aI351
aI350
aI301
aI247
aI271
aI2
aI85
aI179
aI185
aI355
aI347
aI331
aI28
aI181
aI75
aI7
aI44
aI307
aI25
aI121
aI130
aI27
aI118
aI89
aI161
aI122
aI90
aI144
aI306
aI151
aI219
aI73
aI5
aI341
aI285
aI4
aI11
aI177
aI175
aI181
aI1
aI5
aI110
aI359
aI0
aI202
aI342
aI12
aI80
aI46
aI160
aI156
aI310
aI310
aI314
aI16
aI330
aI342
aI2
aI10
aI11
aI7
aI0
aI0
aI230
aI225
aI205
aI187
aI41
aI195
aI300
aI181
aI180
aI24
aI13
aI350
aI197
aI62
aI342
aI323
aI353
aI145
aI250
aI9
aI351
aI0
aI181
aI168
aI84
aI337
aI215
aI5
aI262
aI122
aI105
aI17
aI193
aI90
aI100
aI170
aI241
aI222
aI25
aI336
aI85
aI161
aI121
aI170
aI163
aI177
aI296
aI270
aI177
aI303
aI132
aI165
aI114
aI115
aI352
aI352
aI339
aI0
aI350
aI0
aI313
aI229
aI125
aI4
aI345
aI350
aI350
aI45
aI19
aI22
aI23
aI322
aI332
aI316
aI176
aI37
aI29
aI343
aI79
aI41
aI327
aI54
aI22
aI183
aI220
aI219
aI43
aI248
aI199
aI337
aI210
aI24
aI306
aI0
aI321
aI284
aI67
aI322
aI329
aI28
aI24
aI36
aI335
aI208
aI324
aI143
aI344
aI84
aI135
aI36
aI181
aI178
aI28
aI72
aI314
aI286
aI317
aI28
aI166
aI112
aI62
aI318
aI329
aI328
aI230
aI333
aI50
aI182
aI151
aI334
aI64
aI354
aI247
aI69
aI79
aI23
aI15
aI347
aI34
aI27
aI342
aI42
aI152
aI23
aI35
aI299
aI54
aI270
aI32
aI4
aI331
aI267
aI75
aI110
aI147
aI132
aI316
aI303
aI130
aI159
aI50
aI318
aI325
aI77
aI134
aI314
aI336
aI340
aI35
aI18
aI12
aI317
aI341
aI309
aI0
aI323
aI16
aI289
aI140
aI26
aI71
aI325
aI61
aI33
aI28
aI157
aI42
aI138
aI116
aI130
aI347
aI337
aI291
aI100
aI260
aI318
aI31
aI336
aI62
aI69
aI50
aI243
aI34
aI179
aI126
aI328
aI25
aI336
aI24
aI337
aI0
aI12
aI211
aI22
aI17
aI340
aI259
aI33
aI55
aI0
aI211
aI161
aI252
aI35
aI43
aI27
aI137
aI1
aI19
aI7
aI66
aI299
aI18
aI139
aI111
aI200
aI112
aI333
aI329
aI228
aI350
aI156
aI306
aI287
aI290
aI192
aI58
aI33
aI219
aI70
aI259
aI14
aI33
aI156
aI336
aI331
aI339
aI159
aI25
aI41
aI220
aI35
aI74
aI325
aI209
aI28
aI329
aI32
aI338
aI155
aI304
aI181
aI31
aI77
aI160
aI136
aI326
aI347
aI247
aI187
aI23
aI13
aI147
aI0
aI21
aI324
aI318
aI56
aI23
aI296
aI111
aI319
aI33
aI320
aI348
aI9
aI0
aI253
aI344
aI302
aI327
aI203
aI203
aI11
aI215
aI9
aI43
aI37
aI29
aI40
aI179
aI339
aI32
aI50
aI176
aI112
aI37
aI166
aI154
aI352
aI136
aI197
aI246
aI107
aI68
aI33
aI339
aI344
aI24
aI227
aI111
aI23
aI70
aI32
aI289
aI260
aI219
aI203
aI10
aI256
aI144
aI339
aI345
aI223
aI189
aI69
aI179
aI251
aI104
aI33
aI220
aI139
aI29
aI328
aI213
aI144
aI329
aI112
aI298
aI203
aI225
aI16
aI102
aI32
aI296
aI87
aI210
aI34
aI16
aI305
aI326
aI137
aI152
aI163
aI177
aI330
aI180
aI252
aI75
aI110
aI289
aI24
aI65
aI16
aI204
aI320
aI329
aI179
aI306
aI73
aI308
aI69
aI318
aI336
aI151
aI123
aI330
aI112
aI318
aI203
aI2
aI333
aI312
aI285
aI342
aI249
aI326
aI162
aI181
aI0
aI320
aI318
aI73
aI39
aI20
aI16
aI104
aI109
aI57
aI297
aI230
aI311
aI29
aI315
aI292
aI305
aI193
aI42
aI28
aI310
aI336
aI20
aI62
aI333
aI7
aI263
aI0
aI105
aI26
aI116
aI0
aI15
aI120
aI48
aI6
aI199
aI143
aI73
aI257
aI158
aI3
aI162
aI31
aI269
aI188
aI333
aI181
aI290
aI18
aI207
aI70
aI160
aI33
aI14
aI134
aI143
aI29
aI68
aI323
aI123
aI152
aI25
aI21
aI136
aI292
aI343
aI101
aI317
aI325
aI62
aI28
aI313
aI336
aI317
aI180
aI243
aI30
aI341
aI28
aI137
aI255
aI57
aI33
aI17
aI40
aI37
aI334
aI125
aI38
aI188
aI211
aI292
aI53
aI291
aI23
aI17
aI42
aI19
aI63
aI334
aI42
aI311
aI299
aI242
aI337
aI27
aI272
aI26
aI287
aI53
aI159
aI341
aI65
aI87
aI0
aI52
aI145
aI326
aI12
aI45
aI22
aI182
aI69
aI55
aI74
aI199
aI185
aI49
aI40
aI26
aI40
aI173
aI75
aI13
aI220
aI144
aI335
aI59
aI155
aI163
aI219
aI55
aI330
aI313
aI83
aI337
aI30
aI17
aI111
aI343
aI209
aI31
aI128
aI102
aI341
aI31
aI0
aI113
aI325
aI339
aI109
aI303
aI108
aI42
aI17
aI26
aI17
aI29
aI298
aI324
aI70
aI194
aI209
aI210
aI97
aI287
aI336
aI47
aI26
aI328
aI78
aI35
aI211
aI37
aI292
aI310
aI330
aI0
aI54
aI305
aI64
aI87
aI67
aI247
aI204
aI24
aI257
aI328
aI19
aI343
aI239
aI20
aI244
aI247
aI166
aI154
aI336
aI90
aI316
aI15
aI55
aI177
aI180
aI251
aI35
aI245
aI58
aI335
aI324
aI327
aI202
aI30
aI68
aI249
aI34
aI218
aI182
aI41
aI312
aI192
aI332
aI127
aI21
aI162
aI164
aI20
aI330
aI290
aI31
aI331
aI292
aI342
aI45
aI340
aI341
aI49
aI317
aI194
aI30
aI0
aI320
aI112
aI330
aI131
aI332
aI331
aI65
aI26
aI250
aI343
aI323
aI110
aI30
aI47
aI0
aI37
aI37
aI27
aI324
aI36
aI110
aI322
aI27
aI339
aI323
aI26
aI250
aI25
aI333
aI335
aI314
aI108
aI73
aI24
aI22
aI217
aI24
aI180
aI353
aI339
aI16
aI297
aI287
aI99
aI38
aI311
aI332
aI303
aI338
aI32
aI275
aI38
aI351
aI93
aI33
aI180
aI78
aI25
aI336
aI44
aI15
aI51
aI0
aI238
aI342
aI4
aI197
aI205
aI157
aI179
aI239
aI40
aI338
aI133
aI111
aI258
aI45
aI178
aI239
aI49
aI179
aI334
aI140
aI22
aI99
aI81
aI333
aI13
aI177
aI133
aI159
aI50
aI38
aI344
aI242
aI149
aI121
aI331
aI250
aI290
aI42
aI65
aI28
aI19
aI19
aI210
aI149
aI341
aI244
aI198
aI145
aI221
aI111
aI221
aI328
aI50
aI338
aI294
aI301
aI0
aI296
aI315
aI288
aI133
aI5
aI29
aI34
aI28
aI80
aI38
aI143
aI299
aI247
aI32
aI61
aI350
aI312
aI14
aI82
aI130
aI138
aI22
aI18
aI337
aI317
aI332
aI261
aI203
aI0
aI70
aI149
aI313
aI20
aI153
aI329
aI335
aI260
aI110
aI40
aI346
aI351
aI353
aI332
aI307
aI161
aI325
aI303
aI342
aI117
aI305
aI243
aI318
aI229
aI325
aI333
aI21
aI47
aI94
aI181
aI143
aI30
aI30
aI47
aI252
aI303
aI297
aI0
aI72
aI54
aI340
aI338
aI332
aI247
aI247
aI159
aI340
aI49
aI56
aI207
aI0
aI324
aI5
aI336
aI292
aI108
aI159
aI112
aI171
aI66
aI234
aI338
aI27
aI50
aI57
aI336
aI155
aI266
aI69
aI24
aI335
aI322
aI331
aI259
aI38
aI40
aI187
aI42
aI244
aI198
aI318
aI314
aI344
aI100
aI351
aI322
aI304
aI321
aI155
aI341
aI337
aI38
aI63
aI292
aI179
aI229
aI30
aI333
aI171
aI343
aI170
aI257
aI10
aI208
aI334
aI338
aI182
aI27
aI108
aI310
aI334
aI68
aI309
aI191
aI329
aI296
aI29
aI333
aI328
aI49
aI181
aI23
aI350
aI0
aI32
aI26
aI235
aI320
aI336
aI14
aI193
aI112
aI317
aI300
aI29
aI57
aI325
aI320
aI260
aI247
aI262
aI65
aI65
aI275
aI232
aI51
aI325
aI206
aI45
aI318
aI46
aI162
aI315
aI217
aI198
aI105
aI235
aI70
aI133
aI110
aI221
aI217
aI340
aI331
aI51
aI201
aI69
aI22
aI56
aI301
aI314
aI125
aI61
aI188
aI286
aI330
aI207
aI17
aI218
aI21
aI287
aI271
aI86
aI301
aI346
aI196
aI222
aI148
aI330
aI48
aI324
aI357
aI343
aI18
aI153
aI110
aI225
aI37
aI0
aI71
aI30
aI335
aI38
aI27
aI33
aI13
aI68
aI43
aI334
aI36
aI179
aI36
aI327
aI316
aI103
aI333
aI45
aI326
aI222
aI41
aI272
aI27
aI334
aI151
aI68
aI36
aI204
aI163
aI81
aI340
aI153
aI219
aI331
aI29
aI22
aI70
aI107
aI2
aI40
aI313
aI322
aI9
aI39
aI209
aI130
aI0
aI326
aI310
aI0
aI113
aI0
aI0
aI311
aI110
aI45
aI101
aI297
aI196
aI160
aI195
aI20
aI166
aI139
aI103
aI0
aI15
aI321
aI300
aI179
aI105
aI291
aI111
aI17
aI65
aI105
aI353
aI79
aI27
aI241
aI318
aI85
aI43
aI19
aI305
aI37
aI112
aI327
aI36
aI224
aI262
aI24
aI239
aI25
aI33
aI15
aI297
aI31
aI24
aI221
aI52
aI45
aI282
aI106
aI293
aI110
aI255
aI352
aI197
aI111
aI0
aI320
aI159
aI40
aI32
aI11
aI329
aI90
aI317
aI18
aI41
aI76
aI247
aI266
aI331
aI233
aI120
aI137
aI317
aI204
aI295
aI49
aI330
aI316
aI0
aI23
aI316
aI75
aI329
aI266
aI24
aI23
aI72
aI52
aI107
aI122
aI310
aI71
aI37
aI124
aI27
aI32
aI31
aI346
aI12
aI328
aI333
aI197
aI178
aI318
aI337
aI154
aI0
aI240
aI31
aI126
aI23
aI287
aI22
aI292
aI326
aI14
aI23
aI333
aI279
aI333
aI163
aI154
aI59
aI307
aI51
aI2
aI12
aI113
aI102
aI300
aI0
aI204
aI341
aI54
aI27
aI62
aI10
aI67
aI336
aI23
aI334
aI282
aI69
aI39
aI12
aI109
aI155
aI327
aI18
aI312
aI288
aI23
aI328
aI325
aI306
aI25
aI357
aI246
aI50
aI339
aI35
aI200
aI155
aI43
aI1
aI104
aI307
aI33
aI312
aI102
aI49
aI270
aI16
aI22
aI108
aI28
aI330
aI322
aI163
aI0
aI138
aI58
aI142
aI22
aI297
aI238
aI327
aI37
aI128
aI205
aI325
aI341
aI35
aI334
aI28
aI214
aI330
aI241
aI117
aI1
aI307
aI110
aI332
aI342
aI70
aI196
aI208
aI38
aI22
aI264
aI19
aI54
aI64
aI330
aI308
aI77
aI344
aI253
aI43
aI163
aI29
aI46
aI43
aI41
aI320
aI29
aI151
aI181
aI292
aI294
aI57
aI178
aI351
aI119
aI248
aI156
aI33
aI39
aI300
aI181
aI105
aI279
aI40
aI29
aI70
aI146
aI334
aI140
aI346
aI257
aI196
aI49
aI35
aI0
aI50
aI40
aI50
aI40
aI103
aI26
aI43
aI22
aI146
aI296
aI191
aI28
aI130
aI31
aI27
aI327
aI21
aI324
aI61
aI45
aI8
aI38
aI324
aI304
aI51
aI52
aI67
aI252
aI205
aI332
aI292
aI334
aI0
aI22
aI226
aI39
aI22
aI35
aI314
aI308
aI181
aI167
aI336
aI144
aI341
aI106
aI46
aI199
aI0
aI21
aI348
aI0
aI76
aI21
aI151
aI15
aI29
aI181
aI30
aI290
aI253
aI15
aI53
aI122
aI67
aI104
aI16
aI82
aI109
aI262
aI102
aI109
aI98
aI330
aI146
aI337
aI300
aI304
aI41
aI29
aI5
aI169
aI15
aI59
aI31
aI342
aI36
aI122
aI67
aI21
aI109
aI64
aI284
aI95
aI16
aI30
aI299
aI30
aI155
aI311
aI23
aI319
aI41
aI24
aI56
aI304
aI243
aI284
aI59
aI33
aI327
aI0
aI161
aI14
aI141
aI321
aI44
aI333
aI314
aI32
aI210
aI125
aI22
aI60
aI62
aI6
aI157
aI163
aI65
aI251
aI234
aI177
aI55
aI106
aI320
aI297
aI295
aI96
aI51
aI34
aI36
aI68
aI73
aI284
aI70
aI74
aI124
aI307
aI28
aI347
aI338
aI64
aI72
aI338
aI29
aI346
aI110
aI37
aI337
aI107
aI203
aI224
aI67
aI17
aI15
aI227
aI333
aI263
aI305
aI24
aI19
aI3
aI339
aI52
aI112
aI15
aI196
aI334
aI27
aI59
aI181
aI30
aI195
aI331
aI58
aI70
aI216
aI329
aI28
aI315
aI326
aI331
aI36
aI16
aI337
aI177
aI342
aI162
aI292
aI70
aI322
aI141
aI38
aI114
aI11
aI35
aI67
aI28
aI213
aI338
aI0
aI216
aI17
aI17
aI112
aI320
aI350
aI266
aI314
aI263
aI319
aI13
aI328
aI34
aI336
aI0
aI310
aI308
aI324
aI47
aI23
aI201
aI99
aI162
aI39
aI20
aI349
aI54
aI16
aI0
aI16
aI102
aI70
aI311
aI214
aI45
aI291
aI236
aI178
aI322
aI39
aI230
aI169
aI16
aI213
aI75
aI156
aI300
aI94
aI0
aI312
aI319
aI164
aI37
aI25
aI318
aI324
aI24
aI159
aI148
aI326
aI329
aI250
aI51
aI143
aI32
aI243
aI295
aI323
aI288
aI187
aI29
aI144
aI166
aI194
aI129
aI223
aI322
aI241
aI0
aI27
aI31
aI302
aI17
aI348
aI13
aI58
aI158
aI214
aI45
aI255
aI51
aI129
aI111
aI38
aI160
aI42
aI249
aI149
aI329
aI339
aI119
aI86
aI35
aI331
aI26
aI37
aI111
aI44
aI322
aI0
aI290
aI111
aI19
aI71
aI204
aI329
aI31
aI338
aI18
aI32
aI337
aI217
aI54
aI61
aI37
aI180
aI307
aI328
aI11
aI70
aI250
aI17
aI217
aI334
aI104
aI295
aI318
aI179
aI4
aI326
aI331
aI7
aI340
aI200
aI14
aI312
aI115
aI28
aI55
aI337
aI17
aI211
aI0
aI313
aI330
aI13
aI28
aI140
aI160
aI207
aI24
aI323
aI328
aI30
aI16
aI325
aI322
aI330
aI108
aI254
aI319
aI195
aI30
aI29
aI146
aI28
aI46
aI88
aI311
aI353
aI236
aI192
aI216
aI280
aI247
aI310
aI7
aI144
aI341
aI17
aI345
aI207
aI327
aI26
aI109
aI134
aI38
aI31
aI125
aI268
aI38
aI336
aI332
aI24
aI292
aI332
aI180
aI47
aI35
aI24
aI28
aI45
aI111
aI33
aI169
aI45
aI38
aI163
aI33
aI178
aI307
aI189
aI212
aI101
aI35
aI73
aI41
aI292
aI123
aI54
aI341
aI47
aI37
aI16
aI169
aI332
aI347
aI6
aI33
aI347
aI342
aI295
aI43
aI27
aI137
aI22
aI17
aI28
aI287
aI324
aI19
aI180
aI279
aI30
aI20
aI113
aI11
aI320
aI345
aI28
aI334
aI307
aI308
aI217
aI289
aI72
aI301
aI346
aI38
aI115
aI186
aI303
aI276
aI207
aI210
aI313
aI292
aI110
aI31
aI327
aI328
aI326
aI330
aI159
aI349
aI327
aI328
aI182
aI44
aI0
aI335
aI214
aI346
aI27
aI142
aI351
aI33
aI14
aI212
aI347
aI33
aI31
aI154
aI65
aI75
aI203
aI138
aI25
aI179
aI30
aI153
aI105
aI291
aI0
aI173
aI197
aI284
aI345
aI180
aI52
aI236
aI279
aI160
aI0
aI321
aI322
aI24
aI147
aI25
aI329
aI325
aI38
aI330
aI177
aI202
aI29
aI341
aI328
aI0
aI26
aI20
aI312
aI73
aI255
aI298
aI62
aI179
aI68
aI292
aI344
aI16
aI45
aI325
aI85
aI117
aI179
aI15
aI340
aI18
aI322
aI37
aI105
aI22
aI180
aI335
aI23
aI334
aI319
aI150
aI343
aI13
aI24
aI50
aI316
aI260
aI101
aI12
aI34
aI110
aI26
aI242
aI55
aI226
aI10
aI17
aI249
aI32
aI331
aI311
aI311
aI315
aI54
aI344
aI310
aI48
aI24
aI334
aI332
aI111
aI29
aI329
aI71
aI269
aI23
aI320
aI215
aI113
aI332
aI42
aI65
aI158
aI24
aI35
aI318
aI330
aI54
aI250
aI43
aI15
aI42
aI49
aI210
aI128
aI248
aI0
aI19
aI25
aI17
aI179
aI110
aI25
aI227
aI92
aI3
aI109
aI337
aI196
aI341
aI177
aI24
aI134
aI34
aI53
aI50
aI14
aI222
aI153
aI67
aI47
aI231
aI296
aI236
aI182
aI344
aI318
aI173
aI179
aI207
aI27
aI68
aI20
aI328
aI25
aI291
aI323
aI308
aI17
aI22
aI37
aI340
aI10
aI156
aI203
aI8
aI35
aI18
aI43
aI0
aI29
aI59
aI124
aI67
aI324
aI9
aI202
aI178
aI69
aI67
aI318
aI41
aI291
aI298
aI30
aI73
aI15
aI323
aI12
aI67
aI180
aI326
aI312
aI56
aI323
aI40
aI283
aI320
aI53
aI64
aI34
aI53
aI81
aI211
aI344
aI31
aI326
aI337
aI38
aI0
aI252
aI12
aI329
aI297
aI31
aI291
aI49
aI0
aI35
aI28
aI56
aI255
aI112
aI343
aI249
aI335
aI1
aI20
aI283
aI206
aI331
aI324
aI316
aI348
aI34
aI311
aI58
aI349
aI44
aI112
aI15
aI319
aI138
aI178
aI35
aI136
aI137
aI26
aI308
aI345
aI49
aI82
aI354
aI200
aI221
aI320
aI344
aI156
aI1
aI295
aI173
aI334
aI194
aI347
aI111
aI25
aI267
aI292
aI154
aI28
aI15
aI0
aI301
aI126
aI0
aI64
aI332
aI328
aI23
aI244
aI292
aI202
aI61
aI320
aI8
aI265
aI326
aI340
aI219
aI43
aI26
aI332
aI292
aI111
aI299
aI224
aI335
aI319
aI242
aI38
aI224
aI186
aI217
aI17
aI180
aI57
aI203
aI320
aI10
aI112
aI53
aI347
aI138
aI140
aI35
aI92
aI1
aI296
aI143
aI26
aI20
aI336
aI30
aI134
aI27
aI345
aI58
aI153
aI244
aI0
aI42
aI18
aI102
aI34
aI87
aI303
aI311
aI14
aI340
aI159
aI48
aI29
aI204
aI198
aI347
aI46
aI348
aI33
aI22
aI28
aI30
aI267
aI68
aI57
aI240
aI161
aI307
aI323
aI76
aI27
aI35
aI291
aI223
aI91
aI66
aI312
aI31
aI0
aI51
aI226
aI195
aI325
aI336
aI10
aI55
aI349
aI170
aI175
aI49
aI197
aI337
aI39
aI144
aI33
aI109
aI234
aI38
aI39
aI25
aI67
aI39
aI217
aI333
aI343
aI35
aI25
aI27
aI298
aI92
aI0
aI207
aI110
aI24
aI33
aI16
aI145
aI142
aI43
aI102
aI31
aI36
aI294
aI334
aI280
aI0
aI25
aI0
aI47
aI335
aI201
aI287
aI18
aI34
aI37
aI33
aI51
aI257
aI340
aI335
aI29
aI43
aI27
aI148
aI53
aI91
aI149
aI289
aI26
aI335
aI25
aI345
aI62
aI36
aI336
aI18
aI204
aI327
aI319
aI135
aI34
aI315
aI186
aI198
aI318
aI124
aI181
aI138
aI225
aI164
aI320
aI16
aI177
aI153
aI327
aI173
aI22
aI22
aI26
aI69
aI42
aI154
aI0
aI339
aI53
aI230
aI90
aI345
aI31
aI0
aI315
aI328
aI304
aI338
aI73
aI31
aI14
aI136
aI211
aI306
aI70
aI64
aI331
aI284
aI308
aI22
aI317
aI159
aI36
aI318
aI157
aI312
aI25
aI281
aI208
aI45
aI51
aI320
aI71
aI73
aI67
aI55
aI23
aI110
aI166
aI349
aI0
aI279
aI318
aI328
aI67
aI30
aI311
aI328
aI146
aI288
aI0
aI180
aI239
aI323
aI5
aI23
aI321
aI249
aI313
aI333
aI27
aI37
aI296
aI321
aI66
aI158
aI77
aI334
aI331
aI80
aI152
aI88
aI243
aI59
aI45
aI225
aI332
aI338
aI280
aI42
aI122
aI19
aI100
aI132
aI30
aI334
aI307
aI303
aI319
aI179
aI269
aI293
aI339
aI31
aI326
aI104
aI310
aI112
aI28
aI251
aI130
aI284
aI30
aI37
aI123
aI19
aI148
aI33
aI291
aI142
aI230
aI342
aI284
aI335
aI36
aI28
aI295
aI90
aI154
aI133
aI346
aI89
aI48
aI29
aI342
aI22
aI340
aI18
aI32
aI40
aI39
aI181
aI181
aI33
aI48
aI321
aI179
aI200
aI214
aI23
aI38
aI298
aI327
aI178
aI28
aI204
aI333
aI23
aI332
aI26
aI308
aI33
aI0
aI142
aI251
aI90
aI73
aI334
aI283
aI69
aI329
aI26
aI326
aI247
aI158
aI171
aI298
aI122
aI53
aI351
aI322
aI326
aI32
aI23
aI43
aI46
aI17
aI197
aI0
aI51
aI94
aI333
aI69
aI190
aI289
aI43
aI197
aI79
aI18
aI35
aI320
aI293
aI243
aI62
aI240
aI177
aI268
aI222
aI306
aI201
aI262
aI21
aI338
aI334
aI232
aI39
aI237
aI62
aI21
aI207
aI21
aI245
aI224
aI306
aI257
aI336
aI254
aI43
aI14
aI306
aI298
aI159
aI42
aI48
aI342
aI241
aI37
aI278
aI162
aI52
aI101
aI59
aI51
aI99
aI331
aI325
aI31
aI179
aI344
aI22
aI96
aI39
aI46
aI129
aI26
aI314
aI26
aI231
aI29
aI325
aI38
aI44
aI38
aI235
aI173
aI26
aI0
aI350
aI271
aI106
aI327
aI0
aI224
aI337
aI329
aI214
aI22
aI329
aI311
aI182
aI165
aI20
aI22
aI0
aI298
aI123
aI249
aI183
aI171
aI334
aI278
aI29
aI189
aI193
aI193
aI23
aI308
aI291
aI26
aI45
aI49
aI326
aI282
aI301
aI15
aI56
aI111
aI335
aI25
aI26
aI47
aI195
aI312
aI42
aI48
aI342
aI32
aI177
aI62
aI325
aI182
aI332
aI1
aI25
aI122
aI317
aI156
aI298
aI162
aI182
aI178
aI324
aI109
aI318
aI301
aI303
aI342
aI289
aI23
aI29
aI334
aI29
aI266
aI0
aI296
aI316
aI144
aI253
aI325
aI26
aI331
aI154
aI7
aI210
aI57
aI6
aI0
aI109
aI171
aI321
aI21
aI2
aI341
aI61
aI287
aI202
aI107
aI47
aI27
aI0
aI108
aI329
aI294
aI76
aI254
aI333
aI322
aI319
aI342
aI112
aI112
aI42
aI244
aI70
aI182
aI52
aI266
aI23
aI350
aI332
aI197
aI73
aI297
aI180
aI256
aI56
aI30
aI276
aI312
aI227
aI75
aI54
aI107
aI321
aI17
aI324
aI326
aI334
aI331
aI284
aI36
aI1
aI259
aI196
aI21
aI36
aI37
aI44
aI18
aI44
aI144
aI138
aI72
aI344
aI179
aI60
aI347
aI259
aI69
aI11
aI12
aI81
aI70
aI287
aI338
aI0
aI21
aI21
aI179
aI15
aI337
aI27
aI150
aI326
aI340
aI253
aI189
aI290
aI21
aI322
aI317
aI68
aI319
aI317
aI121
aI35
aI66
aI143
aI315
aI311
aI32
aI318
aI19
aI244
aI323
aI328
aI327
aI15
aI165
aI324
aI309
aI210
aI111
aI10
aI323
aI14
aI214
aI46
aI322
aI55
aI333
aI16
aI65
aI67
aI0
aI271
aI32
aI47
aI129
aI11
aI219
aI325
aI333
aI18
aI337
aI183
aI304
aI236
aI42
aI25
aI27
aI191
aI327
aI299
aI21
aI57
aI35
aI8
aI191
aI107
aI22
aI163
aI223
aI25
aI216
aI0
aI4
aI254
aI65
aI177
aI43
aI329
aI320
aI205
aI26
aI313
aI85
aI214
aI210
aI17
aI124
aI312
aI54
aI17
aI191
aI177
aI178
aI36
aI163
aI282
aI45
aI333
aI330
aI177
aI346
aI335
aI0
aI39
aI330
aI98
aI29
aI27
aI74
aI23
aI322
aI217
aI28
aI72
aI27
aI339
aI209
aI322
aI310
aI39
aI341
aI335
aI70
aI258
aI62
aI168
aI37
aI128
aI135
aI335
aI179
aI180
aI40
aI32
aI192
aI44
aI330
aI119
aI347
aI0
aI347
aI273
aI319
aI108
aI67
aI306
aI353
aI26
aI305
aI167
aI150
aI143
aI232
aI255
aI15
aI153
aI324
aI346
aI40
aI297
aI348
aI150
aI312
aI339
aI318
aI33
aI22
aI60
aI335
aI39
aI347
aI116
aI291
aI317
aI28
aI248
aI341
aI342
aI108
aI326
aI334
aI48
aI0
aI33
aI284
aI333
aI194
aI207
aI310
aI253
aI0
aI81
aI31
aI69
aI334
aI32
aI39
aI262
aI207
aI199
aI144
aI36
aI298
aI277
aI35
aI38
aI327
aI0
aI241
aI36
aI36
aI43
aI336
aI30
aI0
aI203
aI17
aI26
aI278
aI335
aI154
aI165
aI18
aI187
aI21
aI250
aI91
aI66
aI282
aI38
aI207
aI53
aI331
aI211
aI96
aI27
aI6
aI35
aI24
aI111
aI240
aI47
aI10
aI325
aI23
aI8
aI321
aI330
aI231
aI243
aI134
aI70
aI292
aI199
aI328
aI73
aI47
aI181
aI18
aI333
aI338
aI179
aI68
aI39
aI23
aI271
aI110
aI230
aI198
aI186
aI344
aI18
aI42
aI346
aI278
aI18
aI287
aI27
aI302
aI28
aI10
aI11
aI23
aI43
aI327
aI290
aI22
aI335
aI12
aI145
aI340
aI238
aI3
aI111
aI27
aI330
aI24
aI328
aI332
aI214
aI180
aI0
aI342
aI335
aI1
aI67
aI57
aI326
aI338
aI249
aI340
aI17
aI340
aI335
aI339
aI65
aI202
aI58
aI334
aI170
aI27
aI306
aI108
aI55
aI177
aI219
aI100
aI255
aI38
aI25
aI347
aI289
aI30
aI179
aI21
aI325
aI0
aI351
aI343
aI147
aI178
aI28
aI30
aI345
aI220
aI12
aI177
aI203
aI33
aI289
aI227
aI0
aI302
aI299
aI0
aI335
aI200
aI315
aI97
aI135
aI332
aI41
aI17
aI28
aI59
aI282
aI43
aI9
aI35
aI310
aI321
aI43
aI1
aI270
aI195
aI108
aI26
aI178
aI252
aI337
aI183
aI59
aI187
aI248
aI179
aI16
aI22
aI284
aI33
aI256
aI215
aI180
aI179
aI163
aI67
aI152
aI339
aI10
aI77
aI300
aI306
aI234
aI85
aI60
aI109
aI12
aI99
aI332
aI1
aI338
aI28
aI328
aI108
aI82
aI251
aI9
aI343
aI178
aI58
aI21
aI15
aI311
aI311
aI322
aI172
aI59
aI15
aI23
aI22
aI1
aI52
aI282
aI264
aI193
aI119
aI333
aI236
aI276
aI38
aI323
aI43
aI344
aI298
aI146
aI52
aI321
aI124
aI149
aI23
aI30
aI307
aI338
aI37
aI75
aI162
aI316
aI53
aI30
aI344
aI29
aI100
aI111
aI239
aI26
aI84
aI170
aI40
aI324
aI68
aI45
aI136
aI180
aI140
aI180
aI336
aI110
aI285
aI199
aI34
aI155
aI23
aI33
aI45
aI14
aI103
aI181
aI26
aI142
aI123
aI335
aI198
aI339
aI236
aI27
aI332
aI332
aI298
aI321
aI336
aI301
aI24
aI4
aI308
aI141
aI207
aI14
aI332
aI31
aI34
aI340
aI312
aI27
aI37
aI221
aI30
aI17
aI73
aI34
aI330
aI57
aI319
aI266
aI187
aI61
aI76
aI188
aI159
aI1
aI17
aI28
aI302
aI331
aI201
aI309
aI332
aI106
aI104
aI287
aI288
aI340
aI19
aI26
aI194
aI12
aI53
aI31
aI239
aI267
aI69
aI343
aI31
aI36
aI39
aI32
aI242
aI270
aI144
aI324
aI17
aI20
aI152
aI258
aI187
aI31
aI182
aI348
aI257
aI41
aI322
aI209
aI203
aI130
aI221
aI188
aI46
aI268
aI340
aI104
aI337
aI297
aI158
aI0
aI163
aI22
aI0
aI24
aI203
aI354
aI312
aI319
aI322
aI214
aI109
aI244
aI318
aI32
aI329
aI203
aI57
aI130
aI39
aI328
aI152
aI199
aI112
aI322
aI38
aI57
aI249
aI264
aI95
aI38
aI221
aI317
aI10
aI312
aI50
aI168
aI47
aI145
aI106
aI335
aI274
aI295
aI70
aI14
aI257
aI220
aI46
aI299
aI318
aI128
aI219
aI208
aI18
aI303
aI13
aI95
aI249
aI148
aI55
aI156
aI0
aI165
aI102
aI26
aI317
aI151
aI203
aI12
aI339
aI31
aI108
aI229
aI46
aI329
aI90
aI83
aI338
aI0
aI26
aI57
aI36
aI29
aI245
aI339
aI35
aI71
aI37
aI34
aI150
aI19
aI18
aI221
aI35
aI319
aI64
aI297
aI333
aI108
aI221
aI101
aI321
aI182
aI13
aI349
aI335
aI221
aI230
aI323
aI333
aI110
aI62
aI247
aI330
aI339
aI336
aI344
aI144
aI67
aI28
aI46
aI311
aI76
aI27
aI324
aI22
aI218
aI17
aI43
aI31
aI32
aI325
aI332
aI147
aI328
aI240
aI253
aI234
aI223
aI340
aI235
aI151
aI112
aI193
aI346
aI67
aI4
aI168
aI242
aI304
aI32
aI345
aI21
aI247
aI316
aI67
aI45
aI339
aI25
aI153
aI317
aI0
aI54
aI62
aI32
aI235
aI143
aI136
aI248
aI33
aI119
aI237
aI319
aI0
aI316
aI340
aI145
aI109
aI21
aI252
aI60
aI112
aI225
aI325
aI346
aI237
aI104
aI112
aI281
aI228
aI25
aI318
aI325
aI38
aI208
aI83
aI4
aI241
aI254
aI212
aI306
aI32
aI16
aI13
aI25
aI29
aI25
aI30
aI263
aI92
aI330
aI22
aI137
aI152
aI40
aI192
aI0
aI16
aI331
aI45
aI178
aI342
aI301
aI135
aI62
aI315
aI212
aI177
aI156
aI159
aI162
aI218
aI0
aI177
aI13
aI323
aI27
aI60
aI248
aI318
aI297
aI348
aI196
aI68
aI32
aI215
aI66
aI86
aI303
aI123
aI26
aI156
aI60
aI288
aI44
aI126
aI322
aI230
aI318
aI330
aI297
aI139
aI154
aI71
aI179
aI30
aI30
aI214
aI331
aI355
aI35
aI328
aI45
aI216
aI178
aI182
aI21
aI334
aI201
aI242
aI57
aI126
aI56
aI182
aI337
aI200
aI36
aI16
aI304
aI6
aI206
aI35
aI38
aI32
aI27
aI315
aI331
aI199
aI24
aI336
aI248
aI340
aI214
aI29
aI224
aI327
aI178
aI333
aI32
aI321
aI80
aI92
aI180
aI78
aI110
aI42
aI176
aI345
aI20
aI31
aI238
aI292
aI343
aI19
aI327
aI49
aI325
aI127
aI28
aI19
aI315
aI314
aI31
aI334
aI42
aI32
aI324
aI215
aI324
aI321
aI336
aI349
aI157
aI249
aI81
aI328
aI209
aI29
aI297
aI156
aI245
aI106
aI147
aI206
aI249
aI329
aI148
aI222
aI308
aI295
aI27
aI28
aI21
aI313
aI335
aI209
aI71
aI331
aI301
aI39
aI301
aI332
aI342
aI317
aI325
aI341
aI160
aI153
aI136
aI241
aI324
aI335
aI158
aI35
aI295
aI156
aI281
aI210
aI319
aI181
aI293
aI51
aI329
aI343
aI307
aI257
aI0
aI27
aI306
aI23
aI320
aI348
aI257
aI337
aI119
aI221
aI218
aI317
aI351
aI127
aI181
aI204
aI13
aI112
aI217
aI197
aI336
aI331
aI315
aI98
aI47
aI127
aI338
aI319
aI35
aI67
aI122
aI336
aI211
aI212
aI37
aI104
aI264
aI14
aI0
aI0
aI24
aI324
aI49
aI212
aI109
aI51
aI160
aI230
aI205
aI339
aI337
aI25
aI329
aI132
aI340
aI27
aI244
aI201
aI37
aI8
aI354
aI43
aI186
aI319
aI73
aI47
aI333
aI166
aI336
aI37
aI204
aI37
aI331
aI152
aI341
aI0
aI199
aI338
aI307
aI313
aI261
aI341
aI179
aI0
aI346
aI208
aI329
aI338
aI328
aI129
aI342
aI258
aI198
aI135
aI48
aI26
aI331
aI337
aI322
aI152
aI331
aI346
aI36
aI283
aI237
aI89
aI51
aI139
aI15
aI48
aI325
aI36
aI327
aI29
aI27
aI300
aI242
aI207
aI322
aI109
aI339
aI43
aI126
aI0
aI182
aI38
aI88
aI106
aI144
aI180
aI251
aI45
aI178
aI125
aI123
aI62
aI33
aI42
aI311
aI322
aI38
aI59
aI304
aI316
aI169
aI202
aI332
aI135
aI354
aI227
aI0
aI181
aI48
aI179
aI26
aI70
aI329
aI22
aI305
aI317
aI296
aI71
aI26
aI0
aI26
aI19
aI125
aI87
aI329
aI155
aI82
aI297
aI179
aI289
aI0
aI280
aI32
aI11
aI334
aI316
aI8
aI39
aI54
aI348
aI336
aI315
aI39
aI28
aI335
aI72
aI252
aI146
aI39
aI286
aI168
aI52
aI14
aI302
aI211
aI226
aI170
aI342
aI64
aI66
aI18
aI21
aI337
aI309
aI207
aI180
aI180
aI136
aI277
aI33
aI39
aI291
aI100
aI1
aI274
aI24
aI53
aI261
aI279
aI239
aI194
aI126
aI289
aI235
aI335
aI0
aI130
aI354
aI142
aI27
aI341
aI32
aI260
aI261
aI294
aI155
aI112
aI309
aI102
aI138
aI344
aI190
aI0
aI44
aI17
aI0
aI27
aI142
aI79
aI0
aI289
aI336
aI162
aI29
aI217
aI24
aI341
aI27
aI340
aI17
aI15
aI261
aI69
aI327
aI349
aI337
aI0
aI167
aI97
aI43
aI327
aI134
aI326
aI341
aI177
aI343
aI144
aI180
aI17
aI313
aI38
aI316
aI341
aI20
aI334
aI27
aI150
aI315
aI250
aI303
aI84
aI200
aI34
aI339
aI55
aI319
aI173
aI240
aI17
aI336
aI0
aI67
aI14
aI32
aI35
aI140
aI109
aI73
aI326
aI328
aI0
aI17
aI335
aI37
aI286
aI86
aI21
aI0
aI329
aI322
aI281
aI115
aI22
aI247
aI337
aI0
aI131
aI171
aI54
aI296
aI35
aI31
aI297
aI24
aI28
aI337
aI75
aI48
aI39
aI334
aI1
aI165
aI324
aI333
aI109
aI142
aI109
aI0
aI207
aI71
aI87
aI68
aI319
aI321
aI35
aI35
aI330
aI19
aI46
aI25
aI34
aI143
aI29
aI91
aI330
aI41
aI118
aI281
aI343
aI337
aI336
aI54
aI323
aI305
aI330
aI328
aI327
aI52
aI305
aI66
aI26
aI344
aI37
aI260
aI27
aI144
aI36
aI213
aI180
aI44
aI34
aI342
aI174
aI170
aI333
aI216
aI315
aI48
aI112
aI325
aI1
aI343
aI334
aI355
aI109
aI330
aI18
aI38
aI314
aI252
aI306
aI340
aI26
aI290
aI291
aI62
aI21
aI28
aI22
aI331
aI21
aI292
aI17
aI124
aI6
aI153
aI0
aI50
aI291
aI179
aI153
aI67
aI58
aI304
aI294
aI62
aI107
aI332
aI273
aI292
aI314
aI0
aI207
aI310
aI201
aI69
aI341
aI226
aI336
aI341
aI208
aI60
aI231
aI330
aI113
aI336
aI52
aI228
aI298
aI340
aI328
aI9
aI225
aI191
aI332
aI12
aI9
aI295
aI83
aI211
aI130
aI98
aI41
aI163
aI179
aI168
aI78
aI317
aI337
aI51
aI24
aI53
aI36
aI48
aI157
aI23
aI142
aI15
aI11
aI310
aI107
aI322
aI310
aI345
aI20
aI240
aI344
aI126
aI13
aI145
aI151
aI0
aI197
aI217
aI13
aI36
aI335
aI110
aI348
aI179
aI104
aI276
aI271
aI340
aI99
aI27
aI334
aI31
aI344
aI329
aI305
aI179
aI144
aI60
aI289
aI21
aI38
aI31
aI225
aI45
aI80
aI48
aI247
aI337
aI245
aI160
aI118
aI326
aI36
aI212
aI162
aI23
aI321
aI33
aI331
aI327
aI183
aI308
aI299
aI322
aI110
aI112
aI37
aI0
aI200
aI316
aI321
aI284
aI331
aI321
aI42
aI77
aI78
aI47
aI45
aI139
aI8
aI343
aI340
aI19
aI169
aI33
aI0
aI68
aI7
aI34
aI240
aI329
aI88
aI50
aI43
aI29
aI328
aI117
aI352
aI32
aI46
aI281
aI161
aI142
aI20
aI248
aI28
aI179
aI240
aI58
aI159
aI321
aI291
aI136
aI169
aI179
aI73
aI29
aI48
aI28
aI62
aI332
aI179
aI55
aI32
aI46
aI316
aI40
aI338
aI342
aI104
aI13
aI29
aI300
aI19
aI162
aI49
aI217
aI328
aI0
aI144
aI132
aI37
aI302
aI43
aI33
aI72
aI27
aI195
aI324
aI176
aI21
aI163
aI79
aI204
aI343
aI0
aI348
aI321
aI228
aI177
aI278
aI332
aI132
aI267
aI229
aI297
aI110
aI18
aI348
aI302
aI286
aI297
aI38
aI32
aI316
aI327
aI224
aI21
aI34
aI129
aI344
aI66
aI352
aI0
aI309
aI252
aI15
aI43
aI248
aI112
aI215
aI315
aI2
aI352
aI182
aI38
aI326
aI12
aI330
aI179
aI14
aI155
aI25
aI284
aI107
aI311
aI312
aI111
aI335
aI332
aI53
aI18
aI29
aI138
aI54
aI67
aI20
aI322
aI32
aI223
aI38
aI137
aI336
aI330
aI257
aI18
aI65
aI153
aI36
aI20
aI58
aI335
aI177
aI33
aI344
aI332
aI323
aI19
aI30
aI219
aI67
aI332
aI96
aI52
aI288
aI197
aI315
aI30
aI0
aI110
aI122
aI288
aI129
aI300
aI81
aI23
aI206
aI49
aI231
aI241
aI50
aI111
aI60
aI332
aI111
aI347
aI282
aI197
aI55
aI69
aI113
aI330
aI240
aI223
aI306
aI332
aI194
aI332
aI58
aI169
aI317
aI37
aI224
aI285
aI77
aI327
aI251
aI313
aI330
aI111
aI5
aI20
aI112
aI315
aI83
aI326
aI289
aI167
aI338
aI15
aI275
aI135
aI310
aI302
aI32
aI227
aI38
aI57
aI305
aI107
aI300
aI296
aI309
aI290
aI316
aI344
aI57
aI295
aI308
aI334
aI212
aI65
aI0
aI324
aI30
aI328
aI32
aI180
aI335
aI97
aI195
aI83
aI38
aI12
aI331
aI22
aI23
aI50
aI179
aI327
aI350
aI210
aI29
aI239
aI46
aI244
aI350
aI35
aI0
aI38
aI337
aI21
aI179
aI18
aI73
aI54
aI21
aI154
aI150
aI26
aI252
aI180
aI306
aI330
aI107
aI29
aI39
aI340
aI23
aI190
aI31
aI63
aI46
aI30
aI335
aI8
aI343
aI322
aI345
aI337
aI36
aI281
aI22
aI327
aI327
aI312
aI290
aI260
aI338
aI71
aI333
aI318
aI131
aI26
aI26
aI157
aI327
aI218
aI73
aI227
aI339
aI280
aI31
aI317
aI304
aI64
aI65
aI319
aI40
aI148
aI41
aI47
aI49
aI249
aI139
aI335
aI40
aI30
aI18
aI92
aI69
aI280
aI25
aI161
aI239
aI154
aI320
aI331
aI3
aI289
aI22
aI32
aI39
aI252
aI42
aI344
aI69
aI213
aI26
aI284
aI163
aI181
aI172
aI328
aI258
aI331
aI120
aI15
aI288
aI30
aI243
aI35
aI272
aI31
aI67
aI337
aI348
aI22
aI42
aI214
aI32
aI332
aI22
aI36
aI39
aI73
aI300
aI147
aI52
aI328
aI337
aI22
aI27
aI74
aI31
aI25
aI22
aI351
aI111
aI113
aI340
aI337
aI39
aI328
aI282
aI54
aI333
aI316
aI253
aI342
aI42
aI17
aI250
aI226
aI44
aI14
aI42
aI27
aI316
aI219
aI324
aI321
aI109
aI0
aI306
aI344
aI3
aI318
aI26
aI291
aI223
aI112
aI106
aI295
aI45
aI34
aI335
aI6
aI330
aI197
aI319
aI330
aI19
aI303
aI283
aI26
aI324
aI223
aI290
aI304
aI83
aI247
aI342
aI154
aI320
aI324
aI27
aI70
aI132
aI12
aI299
aI54
aI274
aI224
aI121
aI92
aI301
aI336
aI57
aI130
aI22
aI31
aI333
aI83
aI30
aI313
aI17
aI298
aI304
aI336
aI208
aI195
aI142
aI59
aI17
aI324
aI351
aI343
aI134
aI34
aI200
aI98
aI0
aI182
aI188
aI70
aI313
aI23
aI316
aI110
aI214
aI75
aI24
aI146
aI260
aI304
aI74
aI26
aI330
aI22
aI37
aI28
aI24
aI164
aI177
aI281
aI287
aI179
aI113
aI287
aI37
aI236
aI195
aI118
aI20
aI246
aI94
aI139
aI204
aI333
aI240
aI249
aI111
aI50
aI31
aI333
aI35
aI172
aI108
aI317
aI35
aI304
aI321
aI213
aI35
aI311
aI333
aI324
aI50
aI341
aI145
aI51
aI14
aI112
aI216
aI289
aI60
aI79
aI213
aI31
aI331
aI290
aI112
aI326
aI330
aI18
aI296
aI334
aI0
aI38
aI37
aI224
aI20
aI78
aI224
aI18
aI18
aI342
aI320
aI246
aI322
aI107
aI247
aI6
aI326
aI40
aI238
aI316
aI25
aI208
aI32
aI13
aI236
aI145
aI208
aI37
aI291
aI37
aI345
aI132
aI321
aI18
aI24
aI14
aI180
aI323
aI133
aI339
aI321
aI310
aI188
aI217
aI349
aI334
aI323
aI111
aI66
aI104
aI351
aI98
aI176
aI319
aI242
aI248
aI334
aI306
aI266
aI242
aI32
aI58
aI216
aI291
aI52
aI333
aI164
aI159
aI32
aI49
aI0
aI56
aI17
aI110
aI179
aI326
aI36
aI0
aI251
aI60
aI283
aI297
aI343
aI182
aI1
aI340
aI24
aI187
aI166
aI103
aI70
aI227
aI46
aI11
aI27
aI336
aI328
aI221
aI201
aI304
aI53
aI122
aI306
aI342
aI29
aI334
aI69
aI312
aI253
aI326
aI21
aI349
aI150
aI336
aI329
aI0
aI341
aI48
aI33
aI178
aI18
aI323
aI33
aI342
aI23
aI30
aI309
aI251
aI143
aI310
aI152
aI41
aI331
aI34
aI302
aI100
aI273
aI318
aI315
aI279
aI334
aI325
aI346
aI60
aI24
aI338
aI267
aI346
aI243
aI334
aI335
aI107
aI37
aI322
aI162
aI327
aI178
aI21
aI23
aI336
aI59
aI338
aI153
aI317
aI336
aI43
aI110
aI209
aI31
aI305
aI15
aI27
aI25
aI92
aI249
aI180
aI220
aI64
aI330
aI235
aI43
aI43
aI347
aI62
aI149
aI45
aI27
aI337
aI37
aI153
aI0
aI94
aI100
aI59
aI158
aI60
aI314
aI16
aI225
aI48
aI33
aI124
aI333
aI319
aI107
aI334
aI36
aI35
aI323
aI29
aI161
aI28
aI52
aI111
aI250
aI211
aI334
aI203
aI331
aI38
aI329
aI16
aI346
aI201
aI301
aI18
aI32
aI304
aI200
aI204
aI322
aI248
aI106
aI20
aI68
aI14
aI346
aI38
aI334
aI289
aI70
aI0
aI26
aI166
aI303
aI28
aI203
aI58
aI100
aI121
aI34
aI143
aI228
aI40
aI124
aI0
aI263
aI59
aI52
aI148
aI124
aI110
aI339
aI346
aI24
aI328
aI16
aI107
aI25
aI337
aI32
aI180
aI56
aI244
aI133
aI346
aI283
aI329
aI199
aI329
aI324
aI150
aI334
aI20
aI123
aI200
aI6
aI22
aI77
aI249
aI200
aI340
aI111
aI190
aI297
aI41
aI183
aI182
aI20
aI24
aI50
aI326
aI26
aI199
aI234
aI147
aI30
aI235
aI136
aI333
aI327
aI37
aI73
aI33
aI73
aI28
aI180
aI200
aI318
aI47
aI17
aI329
aI281
aI277
aI50
aI30
aI229
aI4
aI203
aI34
aI248
aI76
aI335
aI217
aI24
aI179
aI137
aI0
aI72
aI45
aI172
aI152
aI324
aI51
aI262
aI330
aI289
aI28
aI34
aI325
aI35
aI36
aI19
aI325
aI26
aI341
aI340
aI32
aI26
aI334
aI94
aI187
aI212
aI163
aI0
aI36
aI154
aI29
aI1
aI332
aI65
aI336
aI157
aI138
aI307
aI326
aI21
aI240
aI68
aI180
aI334
aI39
aI68
aI330
aI0
aI300
aI90
aI242
aI63
aI313
aI95
aI134
aI335
aI36
aI343
aI218
aI47
aI17
aI27
aI106
aI133
aI58
aI84
aI17
aI2
aI318
aI23
aI32
aI27
aI36
aI294
aI67
aI0
aI18
aI31
aI46
aI288
aI204
aI11
aI308
aI29
aI201
aI0
aI62
aI20
aI210
aI14
aI25
aI33
aI0
aI316
aI177
aI326
aI44
aI338
aI75
aI30
aI0
aI290
aI70
aI302
aI202
aI68
aI355
aI0
aI195
aI63
aI317
aI43
aI277
aI39
aI343
aI103
aI350
aI144
aI324
aI320
aI199
aI34
aI33
aI338
aI34
aI77
aI112
aI204
aI111
aI332
aI195
aI108
aI73
aI169
aI334
aI319
aI163
aI336
aI207
aI111
aI109
aI165
aI39
aI344
aI36
aI4
aI325
aI64
aI71
aI23
aI48
aI57
aI321
aI34
aI312
aI58
aI24
aI148
aI22
aI337
aI110
aI40
aI35
aI102
aI22
aI43
aI327
aI303
aI2
aI32
aI19
aI223
aI18
aI47
aI268
aI319
aI328
aI327
aI256
aI329
aI162
aI0
aI213
aI13
aI120
aI341
aI102
aI107
aI123
aI348
aI35
aI315
aI61
aI42
aI61
aI234
aI16
aI341
aI11
aI0
aI325
aI335
aI5
aI25
aI77
aI103
aI29
aI66
aI256
aI19
aI26
aI352
aI177
aI182
aI47
aI213
aI114
aI222
aI323
aI71
aI331
aI259
aI20
aI90
aI0
aI310
aI74
aI185
aI336
aI68
aI315
aI182
aI23
aI41
aI305
aI234
aI128
aI110
aI250
aI347
aI71
aI325
aI149
aI259
aI339
aI239
aI112
aI20
aI198
aI107
aI248
aI333
aI63
aI338
aI335
aI45
aI120
aI329
aI299
aI21
aI26
aI104
aI150
aI299
aI39
aI319
aI179
aI181
aI154
aI110
aI214
aI344
aI333
aI34
aI42
aI158
aI342
aI26
aI54
aI323
aI0
aI329
aI334
aI297
aI196
aI251
aI329
aI326
aI44
aI35
aI61
aI330
aI69
aI179
aI151
aI38
aI28
aI342
aI145
aI289
aI48
aI13
aI182
aI310
aI0
aI334
aI153
aI38
aI348
aI338
aI266
aI324
aI188
aI128
aI339
aI164
aI45
aI326
aI0
aI343
aI86
aI225
aI339
aI82
aI0
aI19
aI342
aI210
aI68
aI34
aI39
aI27
aI302
aI151
aI78
aI341
aI0
aI293
aI309
aI214
aI30
aI187
aI335
aI159
aI316
aI305
aI309
aI286
aI142
aI33
aI102
aI336
aI33
aI318
aI308
aI165
aI18
aI138
aI28
aI329
aI120
aI26
aI69
aI345
aI298
aI25
aI163
aI36
aI18
aI276
aI20
aI130
aI142
aI151
aI293
aI54
aI27
aI119
aI19
aI28
aI2
aI27
aI247
aI292
aI335
aI327
aI332
aI344
aI166
aI202
aI242
aI311
aI323
aI42
aI33
aI29
aI18
aI68
aI192
aI0
aI59
aI326
aI279
aI28
aI165
aI284
aI252
aI239
aI346
aI344
aI30
aI214
aI97
aI60
aI130
aI66
aI199
aI0
aI336
aI331
aI338
aI33
aI33
aI342
aI179
aI63
aI339
aI324
aI300
aI212
aI109
aI38
aI20
aI21
aI21
aI29
aI339
aI322
aI352
aI231
aI29
aI301
aI19
aI30
aI28
aI153
aI51
aI37
aI343
aI33
aI327
aI340
aI144
aI329
aI264
aI53
aI100
aI88
aI333
aI320
aI0
aI283
aI146
aI248
aI168
aI272
aI140
aI63
aI317
aI45
aI36
aI150
aI332
aI21
aI336
aI0
aI195
aI25
aI147
aI291
aI36
aI289
aI127
aI17
aI123
aI342
aI320
aI138
aI107
aI340
aI43
aI333
aI21
aI260
aI240
aI277
aI200
aI343
aI207
asS'pottedplant'
p32
(lp33
sS'tvmonitor'
p34
(lp35
I16
aI333
aI337
aI345
aI15
aI341
aI335
aI71
aI332
aI65
aI9
aI3
aI336
aI9
aI327
aI332
aI323
aI300
aI301
aI17
aI311
aI94
aI0
aI3
aI5
aI5
aI10
aI0
aI9
aI2
aI285
aI23
aI181
aI2
aI2
aI52
aI59
aI336
aI27
aI40
aI350
aI7
aI290
aI344
aI9
aI8
aI4
aI71
aI36
aI16
aI12
aI59
aI9
aI316
aI22
aI15
aI54
aI50
aI2
aI1
aI12
aI17
aI328
aI10
aI0
aI349
aI23
aI2
aI3
aI9
aI8
aI9
aI11
aI350
aI353
aI356
aI351
aI353
aI351
aI1
aI357
aI353
aI346
aI322
aI323
aI308
aI318
aI324
aI251
aI212
aI348
aI1
aI52
aI333
aI0
aI29
aI0
aI76
aI46
aI29
aI21
aI20
aI19
aI12
aI9
aI76
aI8
aI9
aI11
aI18
aI57
aI339
aI14
aI7
aI356
aI9
aI335
aI33
aI351
aI168
aI9
aI2
aI339
aI86
aI28
aI69
aI44
aI331
aI359
aI343
aI10
aI88
aI0
aI3
aI129
aI20
aI9
aI50
aI18
aI16
aI6
aI264
aI30
aI38
aI10
aI340
aI23
aI46
aI307
aI19
aI328
aI180
aI343
aI22
aI295
aI359
aI4
aI10
aI14
aI343
aI6
aI24
aI335
aI339
aI180
aI22
aI355
aI330
aI349
aI340
aI290
aI8
aI79
aI39
aI336
aI72
aI25
aI15
aI340
aI44
aI322
aI27
aI350
aI46
aI0
aI30
aI334
aI8
aI34
aI87
aI21
aI354
aI41
aI317
aI9
aI11
aI327
aI0
aI60
aI0
aI35
aI337
aI10
aI327
aI341
aI9
aI329
aI1
aI59
aI309
aI125
aI98
aI312
aI327
aI43
aI337
aI338
aI0
aI340
aI14
aI22
aI9
aI65
aI8
aI22
aI349
aI343
aI9
aI359
aI0
aI350
aI10
aI334
aI350
aI21
aI0
aI37
aI6
aI22
aI151
aI48
aI301
aI183
aI3
aI2
aI0
aI37
aI3
aI0
aI44
aI334
aI30
aI355
aI346
aI307
aI316
aI5
aI337
aI332
aI0
aI352
aI12
aI21
aI333
aI30
aI337
aI47
aI347
aI342
aI22
aI9
aI27
aI4
aI5
aI11
aI10
aI342
aI1
aI7
aI0
aI8
aI1
aI315
aI311
aI289
aI0
aI324
aI8
aI26
aI61
aI22
aI49
aI100
aI327
aI333
aI295
aI299
aI39
aI30
aI0
aI54
aI3
aI6
aI10
aI0
aI9
aI11
aI348
aI354
aI139
aI123
aI22
aI10
aI16
aI28
aI352
aI5
aI4
aI352
aI330
aI25
aI70
aI9
aI44
aI197
aI125
aI255
aI20
aI229
aI11
aI337
aI340
aI6
aI39
aI30
aI60
aI19
aI10
aI47
aI324
aI329
aI5
aI22
aI141
aI317
aI22
aI334
aI22
aI0
aI332
aI3
aI10
aI10
aI334
aI2
aI334
aI338
aI312
aI317
aI4
aI32
aI16
aI35
aI10
aI330
aI305
aI27
aI281
aI22
aI4
aI16
aI0
aI22
aI3
aI10
aI0
aI10
aI22
aI22
aI13
aI5
aI9
aI6
aI27
aI0
aI3
aI292
aI10
aI325
aI10
aI46
aI309
aI305
aI301
aI342
aI8
aI325
aI318
aI332
aI341
aI5
aI9
aI10
aI18
aI309
aI337
aI37
aI0
aI5
aI347
aI78
aI332
aI313
aI0
aI0
aI21
aI0
aI1
aI347
aI0
aI11
aI0
aI0
aI22
aI280
aI0
aI5
aI31
aI348
aI359
aI325
aI323
aI16
aI316
aI24
aI0
aI4
aI11
aI0
aI13
aI0
aI2
aI28
aI327
aI17
aI22
aI320
aI70
aI13
aI29
aI33
aI297
aI311
aI14
aI0
aI0
aI8
aI22
aI316
aI351
aI12
aI338
aI17
aI0
aI348
aI0
aI0
aI342
aI3
aI348
aI0
aI22
aI22
aI1
aI21
aI312
aI0
aI1
aI0
aI32
aI42
aI10
aI343
aI0
aI14
aI6
aI314
aI0
aI359
aI7
aI359
aI19
aI0
aI37
aI1
aI12
aI26
aI335
aI10
aI334
aI15
aI2
aI27
aI359
aI42
aI50
aI0
aI335
aI1
aI319
aI342
aI34
aI0
aI0
aI0
aI1
aI303
aI359
aI22
aI325
aI308
aI1
aI38
aI332
aI0
aI329
aI6
aI0
aI4
aI0
aI0
aI22
aI1
aI353
aI22
aI17
aI23
aI0
aI41
aI301
aI49
aI354
aI22
aI24
aI22
aI22
aI0
aI0
aI332
aI2
aI357
aI333
aI0
aI0
aI0
aI356
aI10
aI0
aI0
aI0
aI0
aI32
aI17
aI358
aI312
aI1
aI337
aI0
aI0
aI22
aI57
aI31
aI0
aI0
aI1
aI359
aI336
aI0
aI1
aI344
aI0
aI300
aI43
aI348
aI0
aI277
aI13
aI0
aI2
aI10
aI24
aI331
aI341
aI22
aI359
aI0
aI0
aI0
aI1
aI333
aI47
aI0
aI1
aI0
aI2
aI23
aI330
aI0
aI178
aI0
aI4
aI22
aI5
aI357
aI0
aI36
aI15
aI1
aI0
aI357
aI316
aI0
aI0
aI18
aI0
aI22
aI0
aI0
aI311
aI55
aI0
aI0
aI306
aI7
aI25
aI22
aI1
aI337
aI18
aI345
aI0
aI0
aI356
aI11
aI345
aI342
aI5
aI359
aI0
aI0
aI325
aI61
aI345
aI17
aI287
aI17
aI306
aI0
aI0
aI0
aI0
aI3
aI356
aI53
aI10
aI5
aI333
aI5
aI336
aI0
aI321
aI359
aI336
aI14
aI40
aI0
aI5
aI0
aI332
aI358
aI343
aI0
aI317
aI16
aI71
aI22
aI310
aI25
aI0
aI0
aI0
aI0
aI349
aI332
aI32
aI349
aI22
aI0
aI22
aI5
aI32
aI38
aI22
aI7
aI31
aI325
aI11
aI0
aI22
aI12
aI0
aI21
aI2
aI9
aI18
aI1
aI337
aI0
aI0
aI11
aI35
aI319
aI0
aI6
aI0
aI313
aI286
aI22
aI27
aI2
aI18
aI0
aI22
aI32
aI1
aI22
aI0
aI21
aI6
aI22
aI346
aI359
aI16
aI2
aI22
aI319
aI18
aI36
aI0
aI12
aI32
aI0
aI305
aI315
aI6
aI4
aI6
aI299
aI322
aI344
aI0
aI11
aI0
aI0
aI0
aI2
aI321
aI3
aI56
aI335
aI0
aI0
aI2
aI6
aI35
aI0
aI0
aI22
aI342
aI1
aI334
aI32
aI347
aI22
aI2
aI18
aI0
aI2
aI40
aI6
aI337
aI11
aI0
aI22
aI341
aI22
aI15
aI1
aI346
aI357
aI0
aI0
aI342
aI7
aI0
aI0
aI6
aI0
aI1
aI324
aI28
aI0
aI336
aI17
aI0
aI6
aI0
aI19
aI327
aI3
aI14
aI6
aI332
aI0
aI11
aI20
aI0
aI22
aI359
aI0
aI337
aI330
aI3
aI3
aI307
aI0
aI0
aI0
aI22
aI0
aI7
aI323
aI0
aI31
aI343
aI0
aI338
aI10
aI329
aI61
aI7
aI317
aI3
aI22
aI0
aI332
aI0
aI41
aI22
aI5
aI0
aI47
aI2
aI29
aI45
aI355
aI15
aI22
aI320
aI22
aI6
aI342
aI310
aI2
aI356
aI359
aI0
aI32
aI22
aI1
aI327
aI22
aI308
aI331
aI353
aI327
aI32
aI31
aI341
aI1
aI1
aI355
aI22
aI7
aI335
aI22
aI10
aI343
aI21
aI10
aI10
aI325
aI3
aI1
aI0
aI22
aI0
aI22
aI324
aI330
aI0
aI52
aI6
aI317
aI0
aI359
aI344
aI0
aI6
aI329
aI0
aI0
aI31
aI4
aI314
aI7
aI343
aI22
aI0
aI0
aI22
aI353
aI0
aI356
aI359
aI0
aI337
aI6
aI1
aI0
aI352
aI344
aI5
aI332
aI25
aI1
aI22
aI4
aI357
aI48
aI25
aI1
aI1
aI356
aI0
aI0
aI42
aI359
aI0
aI327
aI330
aI0
aI0
aI35
aI5
aI4
aI5
aI32
aI346
aI0
aI31
aI27
aI0
aI347
aI43
aI0
aI2
aI76
aI22
aI334
aI337
aI49
aI244
aI0
aI326
aI13
aI338
aI338
aI2
aI32
aI10
aI0
aI359
aI22
aI42
aI359
aI328
aI0
aI304
aI0
aI0
aI22
aI0
aI20
aI323
aI343
aI317
aI350
aI349
aI0
aI299
aI0
aI72
aI359
aI32
aI0
aI5
aI341
aI0
aI0
aI0
aI326
aI359
aI317
aI22
aI346
aI39
aI0
aI40
aI349
aI2
aI16
aI1
aI355
aI21
aI324
aI0
aI357
aI0
aI0
aI305
aI0
aI11
aI18
aI0
aI0
aI0
aI25
aI331
aI0
aI5
aI310
aI5
aI22
aI6
aI22
aI0
aI345
aI0
aI302
aI0
aI29
aI19
aI331
aI31
aI348
aI321
aI358
aI4
aI42
aI0
aI334
aI0
aI4
aI10
aI6
aI22
aI2
aI0
aI340
aI0
aI37
aI0
aI359
aI6
aI26
aI0
aI355
aI6
aI14
aI1
aI19
aI18
aI1
aI1
aI16
aI23
aI305
aI5
aI358
aI2
aI4
aI352
aI1
aI333
aI0
aI13
aI358
aI12
aI323
aI359
aI24
aI11
aI1
aI323
aI16
aI336
aI0
aI3
aI22
aI0
aI18
aI17
aI3
aI9
aI22
aI0
aI32
aI358
aI315
aI6
aI22
aI0
aI4
aI9
aI7
aI347
aI0
aI317
aI22
aI297
aI0
aI335
aI0
aI338
aI326
aI0
aI0
aI38
aI344
aI0
aI6
aI321
aI44
aI337
aI49
aI0
aI319
aI0
aI0
aI10
aI321
aI339
aI337
aI23
aI2
aI343
aI0
aI1
aI51
aI330
aI0
aI6
aI357
aI4
aI358
aI0
aI2
aI20
aI0
aI34
aI321
aI20
aI0
aI322
aI27
aI3
aI0
aI329
aI359
aI14
aI30
aI353
aI359
aI38
aI8
aI22
aI16
aI0
aI359
aI357
aI0
aI337
aI0
aI0
aI2
aI324
aI10
aI359
aI0
aI5
aI338
aI0
aI21
aI356
aI28
aI1
aI2
aI337
aI0
aI6
aI13
aI26
aI37
aI0
aI327
aI359
aI359
aI0
aI0
aI343
aI6
aI31
aI6
aI3
aI327
aI22
aI23
aI22
aI0
aI327
aI307
aI337
aI344
aI22
aI0
aI3
aI329
aI359
aI328
aI334
aI337
aI22
aI338
aI322
aI0
aI4
aI58
aI332
aI298
aI3
aI0
aI0
aI10
aI0
aI10
aI0
aI329
aI5
aI45
aI25
aI344
aI19
aI334
aI0
aI0
aI22
aI0
aI27
aI1
aI2
aI22
aI0
aI25
aI340
aI0
aI25
aI331
aI0
aI22
aI1
aI357
aI0
aI22
aI0
aI2
aI0
aI33
aI280
aI1
aI25
aI334
aI33
aI350
aI350
aI22
aI0
aI1
aI0
aI0
aI22
aI0
aI355
aI22
aI5
aI342
aI346
aI22
aI17
aI2
aI322
aI0
aI1
aI354
aI3
aI0
aI0
aI10
aI0
aI0
aI45
aI332
aI331
aI19
aI0
aI0
aI333
aI10
aI5
aI0
aI12
aI328
aI0
aI0
aI4
aI315
aI1
aI2
aI0
aI13
aI5
aI0
aI0
aI327
aI38
aI17
aI327
aI13
aI359
aI339
aI0
aI51
aI6
aI11
aI343
aI20
aI344
aI42
aI0
aI356
aI322
aI339
aI3
aI1
aI349
aI0
aI9
aI6
aI0
aI307
aI327
aI325
aI317
aI0
aI19
aI6
aI334
aI0
aI18
aI348
aI0
aI0
aI59
aI32
aI0
aI3
aI7
aI63
aI0
aI0
aI38
aI320
aI22
aI0
aI3
aI21
aI22
aI352
aI338
aI0
aI32
aI1
aI0
aI0
aI1
aI341
aI35
aI279
aI333
aI0
aI340
aI339
aI10
aI50
aI75
aI347
aI0
aI0
aI6
aI1
aI7
aI0
aI6
aI304
aI23
aI0
aI317
aI332
aI7
aI10
aI22
aI32
aI37
aI5
aI353
aI310
aI12
aI32
aI1
aI83
aI321
aI20
aI22
aI327
aI4
aI327
aI327
aI33
aI359
aI335
aI316
aI0
aI341
aI359
aI321
aI17
aI296
aI329
aI29
aI34
aI9
aI1
aI336
aI5
aI4
aI11
aI0
aI355
aI1
aI0
aI49
aI19
aI0
aI342
aI12
aI0
aI0
aI62
aI3
aI6
aI0
aI5
aI8
aI0
aI5
aI29
aI58
aI2
aI22
aI23
aI0
aI2
aI1
aI10
aI1
aI339
aI349
aI334
aI22
aI1
aI327
aI29
aI24
aI1
aI5
aI1
aI0
aI340
aI0
aI21
aI359
aI0
aI0
aI340
aI22
aI332
aI22
aI11
aI335
aI349
aI352
aI22
aI5
aI5
aI355
aI23
aI7
aI356
aI343
aI0
aI329
aI33
aI318
aI40
aI355
aI359
aI1
aI1
aI31
aI335
aI22
aI5
aI0
aI22
aI337
aI312
aI0
aI15
aI335
aI0
aI52
aI32
aI332
aI0
aI3
aI359
aI1
aI0
aI322
aI0
aI60
aI3
aI326
aI1
aI0
aI0
aI326
aI22
aI0
aI34
aI0
aI5
aI339
aI1
aI28
aI13
aI0
aI321
aI19
aI0
aI322
aI312
aI22
aI345
aI0
aI5
aI5
aI0
aI5
aI31
aI2
aI45
aI6
aI22
aI331
aI348
aI22
aI33
aI334
aI0
aI0
aI343
aI0
aI22
aI26
aI334
aI0
aI31
aI0
aI343
aI325
aI0
aI346
aI10
aI2
aI5
aI27
aI32
aI346
aI349
aI0
aI0
aI328
aI3
aI359
aI6
aI0
aI0
aI27
aI356
aI0
aI67
aI0
aI36
aI313
aI55
aI332
aI86
aI304
aI293
aI7
aI33
aI357
aI22
aI20
aI28
aI22
aI0
aI53
aI0
aI41
aI0
aI0
aI22
asS'chair'
p36
(lp37
I34
aI269
aI0
aI224
aI71
aI264
aI9
aI294
aI289
aI301
aI300
aI310
aI95
aI91
aI96
aI94
aI87
aI23
aI36
aI10
aI206
aI140
aI161
aI14
aI289
aI203
aI245
aI324
aI0
aI287
aI306
aI331
aI133
aI104
aI342
aI245
aI265
aI190
aI181
aI14
aI86
aI80
aI333
aI340
aI349
aI57
aI270
aI27
aI110
aI230
aI65
aI318
aI222
aI104
aI309
aI309
aI12
aI152
aI40
aI350
aI307
aI317
aI196
aI319
aI338
aI55
aI260
aI135
aI0
aI123
aI36
aI20
aI26
aI25
aI30
aI0
aI102
aI235
aI352
aI235
aI249
aI220
aI40
aI48
aI144
aI146
aI130
aI115
aI0
aI27
aI57
aI113
aI198
aI294
aI357
aI170
aI163
aI53
aI5
aI180
aI214
aI41
aI36
aI18
aI257
aI256
aI327
aI21
aI312
aI157
aI308
aI315
aI325
aI120
aI310
aI288
aI126
aI303
aI95
aI290
aI205
aI265
aI0
aI184
aI141
aI83
aI248
aI330
aI149
aI146
aI252
aI248
aI339
aI341
aI50
aI45
aI9
aI66
aI348
aI357
aI165
aI16
aI31
aI96
aI54
aI268
aI265
aI11
aI200
aI49
aI56
aI352
aI257
aI249
aI137
aI21
aI344
aI342
aI325
aI0
aI202
aI319
aI244
aI234
aI47
aI36
aI112
aI222
aI111
aI233
aI252
aI324
aI39
aI40
aI40
aI20
aI142
aI324
aI15
aI12
aI205
aI187
aI266
aI266
aI145
aI59
aI55
aI350
aI3
aI312
aI10
aI2
aI16
aI182
aI88
aI232
aI352
aI121
aI40
aI340
aI17
aI5
aI180
aI65
aI325
aI334
aI78
aI213
aI27
aI314
aI136
aI342
aI334
aI0
aI337
aI259
aI134
aI256
aI0
aI270
aI178
aI27
aI346
aI83
aI235
aI47
aI321
aI213
aI43
aI245
aI110
aI329
aI0
aI4
aI0
aI1
aI314
aI319
aI83
aI14
aI68
aI221
aI0
aI359
aI290
aI332
aI98
aI11
aI10
aI138
aI81
aI78
aI330
aI279
aI52
aI298
aI6
aI17
aI175
aI162
aI133
aI98
aI194
aI302
aI150
aI329
aI175
aI332
aI34
aI9
aI12
aI187
aI177
aI344
aI345
aI122
aI133
aI245
aI342
aI337
aI35
aI210
aI188
aI34
aI125
aI280
aI58
aI338
aI29
aI315
aI309
aI305
aI323
aI117
aI125
aI241
aI240
aI153
aI147
aI137
aI43
aI346
aI14
aI191
aI245
aI65
aI33
aI314
aI47
aI105
aI108
aI345
aI305
aI5
aI338
aI292
aI190
aI12
aI26
aI237
aI163
aI17
aI38
aI174
aI142
aI249
aI341
aI55
aI225
aI231
aI39
aI20
aI318
aI170
aI247
aI241
aI70
aI73
aI308
aI297
aI97
aI23
aI60
aI75
aI96
aI7
aI13
aI341
aI260
aI263
aI267
aI339
aI77
aI352
aI283
aI158
aI34
aI82
aI183
aI286
aI0
aI4
aI102
aI296
aI35
aI12
aI60
aI0
aI104
aI39
aI305
aI88
aI79
aI14
aI10
aI110
aI30
aI39
aI27
aI27
aI52
aI21
aI70
aI3
aI299
aI342
aI346
aI230
aI131
aI125
aI332
aI54
aI275
aI261
aI314
aI229
aI68
aI78
aI72
aI312
aI277
aI79
aI77
aI274
aI275
aI33
aI13
aI4
aI9
aI5
aI7
aI323
aI32
aI308
aI23
aI359
aI17
aI217
aI216
aI130
aI139
aI61
aI337
aI115
aI242
aI317
aI224
aI86
aI297
aI60
aI15
aI351
aI10
aI329
aI63
aI91
aI54
aI340
aI323
aI0
aI95
aI90
aI123
aI254
aI79
aI40
aI138
aI51
aI255
aI73
aI53
aI280
aI290
aI8
aI348
aI67
aI285
aI130
aI224
aI309
aI41
aI85
aI277
aI340
aI356
aI350
aI56
aI75
aI302
aI353
aI242
aI173
aI121
aI335
aI8
aI335
aI76
aI207
aI247
aI27
aI53
aI222
aI207
aI4
aI99
aI18
aI331
aI205
aI52
aI33
aI281
aI272
aI341
aI337
aI303
aI0
aI143
aI258
aI320
aI8
aI48
aI344
aI355
aI304
aI56
aI284
aI75
aI355
aI359
aI22
aI0
aI270
aI161
aI1
aI64
aI345
aI330
aI318
aI45
aI290
aI352
aI22
aI198
aI191
aI187
aI156
aI161
aI165
aI18
aI75
aI178
aI78
aI278
aI280
aI24
aI220
aI354
aI17
aI340
aI90
aI81
aI3
aI193
aI253
aI25
aI345
aI8
aI310
aI303
aI14
aI11
aI213
aI98
aI100
aI120
aI209
aI166
aI208
aI34
aI356
aI126
aI50
aI33
aI265
aI338
aI335
aI3
aI64
aI284
aI347
aI289
aI101
aI146
aI254
aI86
aI322
aI54
aI264
aI41
aI98
aI195
aI47
aI176
aI145
aI26
aI234
aI335
aI30
aI337
aI251
aI73
aI227
aI297
aI295
aI24
aI33
aI355
aI348
aI276
aI297
aI312
aI311
aI187
aI102
aI88
aI290
aI0
aI222
aI10
aI49
aI24
aI101
aI232
aI305
aI147
aI309
aI20
aI259
aI339
aI2
aI98
aI142
aI74
aI171
aI160
aI144
aI346
aI330
aI137
aI258
aI155
aI169
aI75
aI3
aI0
aI6
aI175
aI273
aI201
aI272
aI79
aI247
aI124
aI27
aI326
aI6
aI194
aI318
aI62
aI323
aI286
aI6
aI5
aI293
aI185
aI178
aI73
aI312
aI200
aI171
aI84
aI83
aI4
aI278
aI279
aI215
aI114
aI19
aI305
aI329
aI238
aI139
aI149
aI0
aI351
aI297
aI305
aI220
aI100
aI309
aI5
aI103
aI116
aI85
aI95
aI320
aI331
aI344
aI303
aI251
aI335
aI346
aI12
aI285
aI75
aI279
aI279
aI269
aI246
aI253
aI72
aI105
aI350
aI175
aI246
aI30
aI1
aI71
aI87
aI31
aI332
aI349
aI4
aI284
aI300
aI30
aI48
aI167
aI173
aI289
aI65
aI272
aI74
aI271
aI193
aI200
aI39
aI6
aI12
aI269
aI73
aI252
aI353
aI199
aI338
aI187
aI33
aI45
aI269
aI342
aI16
aI181
aI19
aI308
aI337
aI304
aI21
aI7
aI286
aI99
aI191
aI22
aI150
aI340
aI32
aI75
aI351
aI3
aI39
aI159
aI344
aI250
aI67
aI55
aI21
aI2
aI104
aI240
aI43
aI110
aI20
aI22
aI274
aI163
aI20
aI293
aI304
aI314
aI315
aI309
aI311
aI320
aI120
aI352
aI13
aI49
aI126
aI315
aI344
aI318
aI19
aI105
aI280
aI200
aI153
aI39
aI249
aI331
aI307
aI299
aI306
aI0
aI58
aI52
aI11
aI65
aI350
aI38
aI238
aI332
aI180
aI20
aI317
aI1
aI4
aI235
aI120
aI45
aI314
aI33
aI181
aI333
aI66
aI348
aI170
aI180
aI10
aI9
aI144
aI95
aI14
aI14
aI230
aI203
aI14
aI137
aI3
aI13
aI300
aI185
aI59
aI10
aI338
aI186
aI218
aI225
aI150
aI158
aI342
aI212
aI243
aI58
aI240
aI120
aI132
aI311
aI29
aI60
aI0
aI7
aI348
aI24
aI23
aI316
aI21
aI6
aI92
aI207
aI241
aI25
aI82
aI35
aI344
aI315
aI329
aI332
aI0
aI357
aI18
aI0
aI54
aI183
aI350
aI12
aI334
aI45
aI252
aI250
aI213
aI221
aI325
aI5
aI255
aI246
aI278
aI263
aI282
aI40
aI22
aI22
aI9
aI20
aI0
aI324
aI257
aI249
aI222
aI40
aI330
aI265
aI335
aI79
aI103
aI307
aI43
aI343
aI11
aI178
aI169
aI14
aI13
aI174
aI262
aI333
aI0
aI350
aI327
aI0
aI314
aI17
aI32
aI0
aI227
aI179
aI12
aI209
aI212
aI22
aI9
aI81
aI73
aI112
aI269
aI252
aI0
aI315
aI164
aI169
aI39
aI50
aI185
aI62
aI149
aI217
aI292
aI158
aI152
aI65
aI272
aI321
aI12
aI75
aI281
aI71
aI40
aI50
aI94
aI190
aI35
aI300
aI24
aI51
aI49
aI311
aI192
aI240
aI135
aI338
aI39
aI173
aI194
aI346
aI79
aI238
aI255
aI72
aI278
aI285
aI203
aI115
aI83
aI270
aI105
aI114
aI295
aI305
aI314
aI110
aI40
aI115
aI40
aI9
aI336
aI352
aI239
aI118
aI193
aI89
aI290
aI37
aI34
aI354
aI334
aI6
aI5
aI106
aI252
aI345
aI259
aI36
aI187
aI340
aI244
aI53
aI193
aI84
aI313
aI313
aI325
aI199
aI319
aI330
aI0
aI68
aI16
aI346
aI349
aI32
aI24
aI334
aI56
aI358
aI237
aI347
aI340
aI282
aI293
aI276
aI144
aI347
aI323
aI317
aI159
aI75
aI20
aI253
aI254
aI260
aI257
aI192
aI29
aI11
aI45
aI350
aI17
aI352
aI270
aI260
aI279
aI352
aI341
aI179
aI6
aI70
aI339
aI123
aI136
aI84
aI329
aI9
aI192
aI306
aI281
aI15
aI308
aI56
aI4
aI180
aI302
aI281
aI285
aI139
aI92
aI30
aI192
aI158
aI103
aI205
aI81
aI80
aI335
aI45
aI5
aI218
aI7
aI7
aI267
aI182
aI13
aI173
aI79
aI268
aI79
aI269
aI19
aI51
aI16
aI15
aI325
aI30
aI48
aI321
aI323
aI243
aI325
aI24
aI270
aI270
aI10
aI94
aI196
aI344
aI87
aI330
aI250
aI250
aI323
aI20
aI325
aI14
aI250
aI231
aI125
aI184
aI90
aI272
aI232
aI207
aI176
aI279
aI218
aI350
aI190
aI217
aI7
aI297
aI69
aI147
aI162
aI337
aI28
aI9
aI16
aI5
aI141
aI295
aI95
aI355
aI72
aI264
aI47
aI61
aI251
aI249
aI77
aI208
aI85
aI253
aI54
aI324
aI65
aI305
aI5
aI69
aI115
aI341
aI23
aI319
aI108
aI225
aI339
aI234
aI114
aI314
aI179
aI101
aI43
aI127
aI289
aI227
aI301
aI97
aI355
aI235
aI45
aI135
aI330
aI355
aI98
aI342
aI190
aI37
aI68
aI300
aI341
aI202
aI95
aI17
aI312
aI131
aI238
aI245
aI329
aI49
aI49
aI11
aI6
aI0
aI353
aI343
aI312
aI118
aI52
aI45
aI251
aI302
aI48
aI108
aI107
aI94
aI99
aI347
aI171
aI351
aI55
aI308
aI69
aI173
aI158
aI165
aI332
aI159
aI287
aI282
aI13
aI348
aI59
aI338
aI225
aI25
aI5
aI208
aI325
aI335
aI343
aI13
aI140
aI50
aI335
aI335
aI297
aI107
aI292
aI106
aI32
aI298
aI10
aI115
aI74
aI16
aI276
aI175
aI210
aI4
aI7
aI13
aI124
aI36
aI47
aI329
aI240
aI229
aI31
aI359
aI332
aI123
aI345
aI75
aI295
aI122
aI316
aI64
aI67
aI323
aI257
aI320
aI338
aI16
aI114
aI217
aI320
aI20
aI3
aI285
aI187
aI43
aI0
aI240
aI14
aI329
aI116
aI320
aI105
aI94
aI343
aI332
aI333
aI0
aI305
aI0
aI14
aI338
aI62
aI267
aI46
aI236
aI272
aI255
aI40
aI19
aI19
aI340
aI241
aI101
aI322
aI345
aI330
aI20
aI321
aI330
aI50
aI19
aI0
aI337
aI0
aI357
aI215
aI6
aI80
aI0
aI315
aI340
aI28
aI35
aI101
aI160
aI352
aI1
aI7
aI85
aI192
aI193
aI103
aI335
aI205
aI92
aI15
aI295
aI299
aI13
aI167
aI355
aI235
aI322
aI235
aI289
aI190
aI239
aI219
aI160
aI13
aI150
aI275
aI344
aI312
aI317
aI148
aI154
aI194
aI2
aI80
aI298
aI295
aI303
aI345
aI15
aI64
aI102
aI146
aI224
aI14
aI332
aI312
aI82
aI277
aI15
aI0
aI263
aI182
aI287
aI238
aI332
aI28
aI10
aI7
aI0
aI0
aI334
aI340
aI332
aI242
aI355
aI47
aI60
aI268
aI0
aI60
aI62
aI57
aI293
aI295
aI79
aI201
aI190
aI87
aI297
aI212
aI306
aI140
aI52
aI2
aI0
aI5
aI275
aI320
aI18
aI20
aI313
aI295
aI304
aI339
aI315
aI330
aI343
aI338
aI1
aI323
aI0
aI58
aI24
aI6
aI3
aI332
aI3
aI327
aI1
aI65
aI8
aI334
aI325
aI7
aI33
aI159
aI135
aI0
aI18
aI339
aI4
aI10
aI0
aI333
aI3
aI286
aI0
aI5
aI302
aI328
aI0
aI333
aI36
aI5
aI10
aI10
aI359
aI147
aI0
aI333
aI319
aI11
aI1
aI25
aI17
aI11
aI275
aI0
aI295
aI319
aI328
aI286
aI0
aI4
aI327
aI323
aI307
aI116
aI56
aI328
aI334
aI339
aI0
aI1
aI248
aI30
aI38
aI23
aI3
aI68
aI0
aI75
aI78
aI62
aI29
aI1
aI330
aI320
aI320
aI15
aI33
aI52
aI30
aI327
aI47
aI53
aI340
aI77
aI72
aI69
aI309
aI299
aI332
aI314
aI324
aI38
aI337
aI33
aI75
aI4
aI6
aI311
aI143
aI48
aI4
aI294
aI26
aI28
aI35
aI22
aI324
aI252
aI326
aI359
aI42
aI302
aI350
aI327
aI243
aI1
aI31
aI0
aI342
aI333
aI13
aI35
aI29
aI35
aI293
aI57
aI0
aI52
aI329
aI2
aI0
aI275
aI323
aI29
aI0
aI0
aI6
aI42
aI313
aI37
aI190
aI330
aI13
aI40
aI21
aI37
aI283
aI0
aI30
aI9
aI3
aI11
aI335
aI72
aI2
aI300
aI6
aI306
aI323
aI294
aI13
aI37
aI317
aI143
aI121
aI1
aI0
aI171
aI3
aI51
aI47
aI66
aI32
aI304
aI143
aI14
aI278
aI58
aI47
aI35
aI62
aI332
aI28
aI5
aI321
aI334
aI40
aI2
aI2
aI329
aI323
aI322
aI54
aI28
aI336
aI336
aI50
aI1
aI294
aI32
aI17
aI305
aI158
aI324
aI24
aI288
aI0
aI16
aI50
aI214
aI12
aI74
aI335
aI4
aI0
aI18
aI153
aI31
aI20
aI274
aI0
aI267
aI293
aI297
aI1
aI96
aI75
aI311
aI25
aI1
aI334
aI3
aI290
aI8
aI63
aI238
aI270
aI55
aI341
aI359
aI0
aI29
aI32
aI330
aI266
aI17
aI9
aI56
aI29
aI52
aI332
aI313
aI21
aI0
aI334
aI3
aI337
aI21
aI17
aI50
aI333
aI0
aI335
aI348
aI77
aI302
aI332
aI285
aI332
aI52
aI217
aI143
aI29
aI9
aI12
aI37
aI75
aI344
aI24
aI49
aI313
aI330
aI79
aI14
aI33
aI25
aI41
aI205
aI338
aI0
aI21
aI32
aI116
aI336
aI325
aI315
aI335
aI1
aI0
aI13
aI0
aI329
aI322
aI21
aI330
aI24
aI333
aI61
aI349
aI17
aI0
aI0
aI2
aI0
aI0
aI348
aI335
aI356
aI334
aI106
aI0
aI313
aI2
aI26
aI335
aI28
aI0
aI333
aI300
aI1
aI334
aI2
aI332
aI114
aI341
aI24
aI149
aI31
aI32
aI32
aI28
aI78
aI49
aI70
aI54
aI47
aI14
aI0
aI316
aI320
aI40
aI329
aI19
aI56
aI330
aI219
aI301
aI186
aI0
aI0
aI0
aI4
aI28
aI333
aI324
aI28
aI333
aI74
aI308
aI18
aI292
aI180
aI26
aI358
aI22
aI40
aI324
aI34
aI322
aI22
aI330
aI289
aI1
aI2
aI339
aI0
aI318
aI4
aI27
aI359
aI295
aI0
aI329
aI13
aI4
aI288
aI345
aI326
aI36
aI62
aI11
aI123
aI89
aI5
aI330
aI52
aI51
aI29
aI286
aI328
aI318
aI334
aI12
aI16
aI27
aI346
aI321
aI64
aI298
aI332
aI0
aI0
aI66
aI0
aI179
aI90
aI42
aI36
aI329
aI353
aI323
aI322
aI0
aI338
aI291
aI327
aI143
aI37
aI282
aI289
aI2
aI46
aI289
aI0
aI11
aI7
aI330
aI319
aI327
aI86
aI0
aI359
aI359
aI326
aI2
aI354
aI7
aI43
aI76
aI333
aI128
aI162
aI295
aI331
aI57
aI322
aI3
aI1
aI61
aI14
aI18
aI218
aI8
aI27
aI339
aI243
aI26
aI3
aI332
aI83
aI0
aI339
aI28
aI333
aI295
aI42
aI12
aI0
aI268
aI82
aI2
aI42
aI325
aI0
aI334
aI314
aI355
aI195
aI193
aI18
aI316
aI0
aI276
aI74
aI23
aI0
aI330
aI339
aI29
aI127
aI38
aI285
aI0
aI337
aI326
aI0
aI3
aI1
aI40
aI36
aI1
aI46
aI40
aI311
aI3
aI347
aI21
aI0
aI336
aI25
aI321
aI0
aI305
aI36
aI5
aI141
aI324
aI310
aI26
aI330
aI329
aI321
aI324
aI314
aI336
aI322
aI330
aI61
aI0
aI21
aI25
aI272
aI310
aI299
aI333
aI304
aI42
aI302
aI321
aI242
aI348
aI16
aI88
aI4
aI4
aI330
aI50
aI344
aI13
aI0
aI283
aI320
aI29
aI349
aI345
aI0
aI317
aI336
aI0
aI99
aI1
aI15
aI32
aI25
aI6
aI306
aI21
aI2
aI338
aI0
aI301
aI90
aI259
aI327
aI31
aI324
aI15
aI30
aI26
aI0
aI0
aI7
aI231
aI297
aI359
aI47
aI313
aI16
aI329
aI267
aI317
aI159
aI302
aI331
aI30
aI31
aI20
aI65
aI300
aI26
aI31
aI1
aI354
aI47
aI323
aI62
aI322
aI332
aI33
aI30
aI4
aI288
aI206
aI338
aI321
aI0
aI44
aI351
aI26
aI1
aI38
aI338
aI283
aI33
aI333
aI0
aI1
aI217
aI0
aI332
aI1
aI0
aI25
aI45
aI1
aI11
aI103
aI0
aI334
aI26
aI22
aI327
aI0
aI7
aI5
aI342
aI3
aI17
aI95
aI34
aI1
aI10
aI235
aI0
aI343
aI35
aI23
aI20
aI321
aI102
aI13
aI323
aI348
aI295
aI0
aI347
aI0
aI38
aI282
aI324
aI62
aI12
aI16
aI62
aI36
aI46
aI28
aI1
aI330
aI18
aI41
aI0
aI3
aI83
aI0
aI216
aI27
aI351
aI298
aI20
aI24
aI7
aI0
aI57
aI43
aI0
aI293
aI0
aI329
aI331
aI6
aI337
aI29
aI26
aI37
aI20
aI78
aI76
aI334
aI327
aI41
aI2
aI17
aI32
aI146
aI37
aI332
aI80
aI59
aI308
aI75
aI12
aI20
aI329
aI34
aI44
aI0
aI346
aI0
aI0
aI326
aI239
aI324
aI146
aI0
aI0
aI1
aI50
aI0
aI3
aI27
aI45
aI325
aI77
aI97
aI8
aI33
aI332
aI64
aI15
aI336
aI327
aI330
aI15
aI1
aI47
aI11
aI308
aI343
aI42
aI334
aI40
aI338
aI330
aI0
aI337
aI333
aI333
aI334
aI346
aI37
aI313
aI58
aI238
aI343
aI334
aI21
aI29
aI293
aI36
aI327
aI30
aI47
aI296
aI4
aI9
aI0
aI16
aI36
aI304
aI347
aI54
aI82
aI31
aI80
aI0
aI324
aI61
aI278
aI327
aI38
aI327
aI0
aI314
aI15
aI4
aI22
aI2
aI0
aI5
aI281
aI0
aI22
aI304
aI0
aI53
aI39
aI0
aI56
aI343
aI331
aI24
aI86
aI44
aI29
aI130
aI303
aI319
aI0
aI338
aI332
aI70
aI330
aI277
aI329
aI326
aI343
aI17
aI0
aI321
aI20
aI0
aI180
aI306
aI309
aI320
aI332
aI177
aI124
aI0
aI318
aI0
aI35
aI26
aI48
aI36
aI306
aI318
aI344
aI323
aI343
aI315
aI41
aI317
aI17
aI0
aI329
aI283
aI310
aI15
aI325
aI313
aI1
aI1
aI32
aI330
aI340
aI2
aI314
aI67
aI340
aI330
aI11
aI0
aI310
aI332
aI7
aI63
aI341
aI61
aI45
aI120
aI20
aI28
aI343
aI38
aI311
aI331
aI326
aI330
aI36
aI44
aI310
aI2
aI118
aI27
aI30
aI326
aI315
aI322
aI325
aI339
aI324
aI325
aI307
aI66
aI124
aI296
aI7
aI9
aI264
aI0
aI331
aI140
aI335
aI328
aI36
aI3
aI5
aI1
aI315
aI330
aI95
aI1
aI43
aI0
aI0
aI336
aI43
aI293
aI0
aI9
aI342
aI29
aI336
aI329
aI332
aI305
aI0
aI36
aI25
aI0
aI138
aI6
aI36
aI305
aI349
aI9
aI350
aI328
aI285
aI37
aI0
aI324
aI57
aI262
aI55
aI5
aI314
aI271
aI9
aI286
aI12
aI267
aI35
aI330
aI0
aI6
aI356
aI17
aI329
aI312
aI345
aI312
aI37
aI26
aI291
aI12
aI0
aI3
aI3
aI330
aI24
aI52
aI0
aI339
aI141
aI0
aI8
aI294
aI15
aI19
aI1
aI32
aI23
aI0
aI29
aI26
aI42
aI336
aI1
aI26
aI25
aI81
aI13
aI358
aI322
aI277
aI0
asS'bird'
p38
(lp39
sS'diningtable'
p40
(lp41
I325
aI320
aI299
aI0
aI45
aI0
aI0
aI314
aI0
aI0
aI0
aI310
aI50
aI322
aI35
aI35
aI45
aI50
aI355
aI0
aI265
aI92
aI0
aI344
aI310
aI0
aI67
aI326
aI300
aI355
aI255
aI30
aI66
aI5
aI282
aI345
aI27
aI38
aI10
aI75
aI325
aI338
aI330
aI10
aI7
aI10
aI10
aI295
aI58
aI354
aI6
aI90
aI355
aI350
aI90
aI0
aI283
aI320
aI5
aI1
aI93
aI6
aI347
aI8
aI290
aI318
aI305
aI335
aI317
aI15
aI1
aI309
aI330
aI305
aI0
aI309
aI2
aI0
aI45
aI59
aI0
aI63
aI34
aI61
aI19
aI76
aI92
aI4
aI297
aI278
aI10
aI305
aI317
aI77
aI89
aI88
aI89
aI0
aI33
aI20
aI317
aI0
aI0
aI0
aI340
aI300
aI88
aI83
aI0
aI276
aI92
aI90
aI335
aI305
aI90
aI0
aI79
aI302
aI324
aI0
aI9
aI13
aI335
aI295
aI12
aI0
aI0
aI94
aI271
aI0
aI320
aI0
aI276
aI274
aI50
aI0
aI0
aI0
aI293
aI335
aI0
aI282
aI0
aI300
aI92
aI50
aI325
aI71
aI0
aI0
aI332
aI296
aI281
aI60
aI265
aI14
aI0
aI24
aI355
aI0
aI90
aI299
aI40
aI288
aI281
aI309
aI95
aI289
aI57
aI3
aI30
aI345
aI300
aI0
aI91
aI350
aI79
aI13
aI0
aI26
aI30
aI2
aI51
aI281
aI0
aI1
aI0
aI60
aI0
aI5
aI0
aI78
aI297
aI93
aI8
aI0
aI284
aI20
aI28
aI296
aI336
aI90
aI90
aI320
aI45
aI0
aI0
aI82
aI7
aI16
aI0
aI0
aI78
aI22
aI2
aI285
aI0
aI300
aI54
aI37
aI0
aI75
aI86
aI83
aI79
aI79
aI95
aI274
aI8
aI10
aI260
aI243
aI249
aI0
aI68
aI0
aI351
aI65
aI0
aI284
aI86
aI0
aI325
aI15
aI36
aI66
aI50
aI352
aI267
aI295
aI0
aI0
aI0
aI0
aI297
aI4
aI0
aI2
aI0
aI0
aI304
aI0
aI91
aI5
aI277
aI3
aI70
aI10
aI346
aI280
aI55
aI15
aI12
aI70
aI78
aI0
aI89
aI0
aI11
aI0
aI0
aI5
aI83
aI345
aI275
aI0
aI330
aI355
aI22
aI60
aI55
aI345
aI100
aI91
aI273
aI0
aI248
aI0
aI16
aI76
aI52
aI75
aI35
aI90
aI294
aI2
aI2
aI4
aI3
aI0
aI0
aI13
aI0
aI5
aI335
aI52
aI15
aI255
aI0
aI40
aI0
aI5
aI0
aI335
aI294
aI5
aI58
aI94
aI0
aI22
aI0
aI0
aI316
aI9
aI310
aI30
aI0
aI301
aI354
aI282
aI90
aI112
aI40
aI47
aI285
aI10
aI288
aI295
aI290
aI269
aI259
aI0
aI62
aI345
aI330
aI9
aI286
aI343
aI95
aI4
aI75
aI350
aI322
aI83
aI4
aI358
aI0
aI74
aI5
aI0
aI0
aI280
aI0
aI54
aI19
aI268
aI0
aI334
aI336
aI0
aI313
aI301
aI47
aI0
aI317
aI59
aI322
aI70
aI301
aI88
aI338
aI34
aI3
aI270
aI0
aI296
aI24
aI323
aI0
aI0
aI70
aI2
aI272
aI0
aI274
aI87
aI0
aI296
aI283
aI3
aI339
aI49
aI311
aI318
aI0
aI0
aI37
aI21
aI0
aI0
aI0
aI36
aI0
aI9
aI315
aI304
aI291
aI317
aI291
aI1
aI328
aI0
aI31
aI0
aI5
aI17
aI330
aI78
aI267
aI0
aI0
aI322
aI2
aI10
aI299
aI56
aI0
aI313
aI268
aI269
aI79
aI51
aI306
aI42
aI60
aI285
aI16
aI40
aI318
aI3
aI32
aI37
aI36
aI0
aI0
aI70
aI68
aI335
aI0
aI0
aI28
aI85
aI287
aI285
aI0
aI75
aI47
aI331
aI318
aI27
aI0
aI0
aI27
aI13
aI44
aI338
aI40
aI43
aI0
aI285
aI277
aI0
aI32
aI330
aI0
aI332
aI69
aI0
aI286
aI86
aI272
aI57
aI0
aI327
aI87
aI0
aI87
aI311
aI42
aI56
aI267
aI2
aI15
aI68
aI281
aI59
aI271
aI22
aI357
aI302
aI338
aI332
aI7
aI88
aI317
aI24
aI10
aI0
aI90
aI314
aI304
aI316
aI322
aI338
aI27
aI25
aI56
aI82
aI323
aI45
aI306
aI60
aI317
aI0
aI274
aI81
aI324
aI337
aI302
aI320
aI305
aI25
aI11
aI87
aI314
aI0
aI17
aI44
aI0
aI41
aI270
aI48
aI0
aI14
aI62
aI54
aI36
aI309
aI30
aI308
aI309
aI39
aI342
aI38
aI23
aI344
aI39
aI40
aI345
aI344
aI42
aI0
aI2
aI349
aI0
aI46
aI55
aI29
aI85
aI0
aI9
aI89
aI58
aI0
aI303
aI348
aI319
aI48
aI1
aI268
aI0
aI0
aI66
aI0
aI68
aI54
aI50
aI89
aI24
aI36
aI0
aI287
aI324
aI87
aI319
aI1
aI0
aI331
aI348
aI30
aI35
aI295
aI348
aI0
aI259
aI301
aI0
aI32
aI0
aI59
aI336
aI0
aI78
aI326
aI333
aI0
aI0
aI329
aI277
aI67
aI305
aI277
aI47
aI0
aI307
aI356
aI98
aI74
aI19
aI279
aI85
aI50
aI340
aI0
aI305
aI9
aI0
aI58
aI17
aI294
aI0
aI12
aI9
aI37
aI329
aI49
aI277
aI1
aI2
aI2
aI79
aI66
aI15
aI0
aI95
aI0
aI0
aI307
aI0
aI296
aI47
aI12
aI90
aI42
aI325
aI329
aI104
aI319
aI0
aI44
aI0
aI3
aI35
aI0
aI269
aI0
aI90
aI88
aI68
aI26
aI3
aI276
aI0
aI73
aI0
aI22
aI34
aI50
aI0
aI20
aI88
aI343
aI40
aI0
aI57
aI86
aI316
aI54
aI0
aI37
aI3
aI33
aI19
aI6
aI13
aI328
aI0
aI27
aI3
aI27
aI315
aI69
aI55
aI26
aI328
aI321
aI26
aI0
aI37
aI59
aI0
aI338
aI17
aI0
aI44
aI333
aI326
aI88
aI347
aI36
aI37
aI0
aI332
aI89
aI294
aI0
aI328
aI321
aI19
aI83
aI41
aI270
aI36
aI296
aI48
aI23
aI1
aI283
aI292
aI9
aI56
aI71
aI37
aI315
aI318
aI0
aI0
aI338
aI343
aI53
aI2
aI0
aI277
aI4
aI0
aI30
aI0
aI281
aI10
aI0
aI271
aI0
aI316
aI264
aI0
aI0
aI33
aI0
aI70
aI5
aI0
aI301
aI96
aI88
aI338
aI0
aI337
aI325
aI63
aI33
aI320
aI295
aI290
aI0
aI295
aI259
aI1
aI335
aI0
aI333
aI338
aI327
aI30
aI42
aI51
aI1
aI1
aI300
aI30
aI310
aI1
aI18
aI328
aI51
aI288
aI291
aI58
aI55
aI0
aI0
aI3
aI331
aI1
aI12
aI341
aI337
aI310
aI66
aI83
aI22
aI85
aI270
aI7
aI0
aI0
aI52
aI34
aI16
aI11
aI294
aI258
aI0
aI1
aI284
aI0
aI275
aI22
aI0
aI51
aI68
aI269
aI50
aI33
aI0
aI50
aI347
aI325
aI0
aI292
aI94
aI55
aI52
aI14
aI95
aI0
aI25
aI270
aI0
aI0
aI0
aI0
aI18
aI315
aI332
aI0
aI45
aI48
aI55
aI0
aI2
aI316
aI61
aI0
aI58
aI0
aI38
aI34
aI62
aI62
aI274
aI0
aI328
aI10
aI37
aI317
aI0
aI58
aI64
aI91
aI35
aI307
aI21
aI1
aI0
aI61
aI49
aI0
aI40
aI334
aI293
aI30
aI344
aI0
aI81
aI68
aI33
aI77
aI85
aI20
aI87
aI288
aI1
aI52
aI308
aI334
aI1
aI27
aI342
aI0
aI276
aI50
aI0
aI0
aI2
aI0
aI64
aI324
aI315
aI67
aI307
aI26
aI274
aI0
aI13
aI329
aI323
aI72
aI62
aI328
aI329
aI295
aI2
aI0
aI53
aI2
aI79
aI293
aI51
aI323
aI1
aI24
aI316
aI62
aI274
aI0
aI0
aI0
aI33
aI296
aI52
aI318
aI57
aI28
aI272
aI0
aI0
aI76
aI0
aI0
aI349
aI0
aI89
aI48
aI12
aI52
aI287
aI0
aI36
aI316
aI43
aI39
aI38
aI58
aI85
aI315
aI49
aI14
aI306
aI282
aI0
aI15
aI312
aI52
aI1
aI350
aI52
aI44
aI333
aI291
aI281
aI329
aI0
aI281
aI30
aI307
aI53
aI38
aI70
aI19
aI281
aI0
aI20
aI64
aI0
aI64
aI277
aI307
aI0
aI287
aI1
aI0
aI41
aI301
aI22
aI1
aI76
aI57
aI325
aI65
aI0
aI28
aI274
aI43
aI55
aI281
aI0
aI1
aI319
aI305
aI49
aI0
aI318
aI256
aI307
aI22
aI316
aI22
aI42
aI302
aI327
aI0
aI0
aI41
aI0
aI1
aI25
aI67
aI88
aI269
aI0
aI35
aI0
aI78
aI47
aI23
aI59
aI326
aI331
aI0
aI0
aI0
aI331
aI303
aI303
aI4
aI9
aI3
aI40
aI0
aI332
aI54
aI5
aI289
aI325
aI28
aI49
aI331
aI0
aI267
aI0
aI300
aI94
aI45
aI31
aI331
aI55
aI0
aI319
aI0
aI287
aI343
aI323
aI269
aI88
aI5
aI58
aI271
aI12
aI0
aI306
aI269
aI283
aI341
aI84
aI322
aI273
aI40
aI5
aI3
aI1
aI308
aI38
aI0
aI324
aI65
aI31
aI60
aI346
aI308
aI0
aI349
aI265
aI20
aI12
aI324
aI0
aI57
aI0
aI47
aI20
aI0
aI307
aI0
aI40
aI320
aI10
aI0
aI85
aI18
aI69
aI46
aI2
aI340
aI10
aI0
aI324
aI19
aI305
aI281
aI32
aI0
aI30
aI87
aI305
aI58
aI41
aI337
aI46
aI75
aI0
aI1
aI78
aI92
aI11
aI53
aI0
aI101
aI0
aI47
aI70
aI0
aI61
aI1
aI10
aI275
aI16
aI0
aI280
aI62
aI0
aI268
aI57
aI25
aI37
aI0
aI34
aI40
aI328
aI339
aI29
aI0
aI19
aI330
aI0
aI270
aI41
aI22
aI0
aI2
aI4
aI0
aI34
aI272
aI0
aI0
aI0
aI0
aI55
aI23
aI346
aI272
aI312
aI296
aI340
aI295
aI17
aI0
aI22
aI65
aI0
aI330
aI286
aI2
aI12
aI326
aI269
aI34
aI270
aI43
aI302
aI0
aI85
aI0
aI0
aI34
aI0
aI23
aI2
aI52
aI47
aI295
aI338
aI87
aI1
aI21
aI0
aI0
aI15
aI58
aI44
aI90
aI346
aI308
aI3
aI96
aI0
aI347
aI329
aI0
aI50
aI2
aI0
aI312
aI47
aI92
aI303
aI313
aI272
aI6
aI283
aI309
aI300
aI0
aI63
aI35
aI0
aI298
aI311
aI348
aI0
aI339
aI305
aI0
aI330
aI37
aI67
aI50
aI303
aI0
aI301
aI12
aI32
aI18
aI307
aI317
aI42
aI69
aI47
aI32
aI37
aI344
aI0
aI330
aI24
aI0
aI63
aI345
aI323
aI42
aI317
aI89
aI91
aI305
aI38
aI10
aI38
aI0
aI0
aI292
aI272
aI288
aI312
aI42
aI59
aI273
aI0
aI2
aI330
aI0
aI60
aI37
aI333
aI294
aI322
aI0
aI51
aI267
aI65
aI289
aI52
aI282
aI326
aI80
aI139
aI0
aI88
aI322
aI25
aI92
aI0
aI27
aI21
aI61
aI311
aI301
aI324
aI62
aI30
aI50
aI314
aI4
aI347
aI55
aI1
aI0
aI0
aI85
aI313
aI92
aI312
aI0
aI289
aI49
aI46
aI62
aI77
aI290
aI42
aI85
aI0
aI43
aI0
aI25
aI2
aI70
aI305
aI68
aI340
aI268
aI321
aI349
aI320
aI0
aI300
aI62
aI318
aI0
aI2
aI42
aI19
aI309
aI0
aI0
aI0
aI0
aI76
aI90
aI4
aI0
aI92
aI0
aI324
aI0
aI308
aI0
aI319
aI74
aI3
aI335
aI64
aI31
aI0
aI3
aI48
aI265
aI88
aI85
aI74
aI0
aI91
aI17
aI63
aI323
aI57
aI342
aI0
aI15
aI311
aI70
aI10
aI0
aI282
aI1
aI338
aI0
aI0
aI58
aI87
aI271
aI68
aI0
aI304
aI9
aI97
aI267
aI332
aI0
aI51
aI2
aI330
aI0
aI317
aI0
aI54
aI292
aI48
aI0
aI54
aI52
aI310
aI0
aI3
aI337
aI0
aI0
aI24
aI0
aI0
aI71
aI269
aI3
aI300
aI297
aI41
aI0
aI4
aI0
aI42
aI0
aI351
aI271
aI26
aI0
aI329
aI318
aI318
aI280
aI323
aI278
aI4
aI89
aI39
aI264
aI282
aI354
aI59
aI0
aI0
aI1
aI344
aI0
aI0
aI87
aI42
aI49
aI297
aI316
aI0
aI17
aI53
aI331
aI306
aI300
aI0
aI38
aI86
aI0
aI312
aI75
aI269
aI306
aI332
aI2
aI318
aI66
aI294
aI0
aI279
aI80
aI281
aI0
aI22
aI0
aI0
aI309
aI2
aI5
aI288
aI2
aI38
aI325
aI330
aI293
aI315
aI51
aI328
aI56
aI45
aI0
aI315
aI330
aI4
aI0
aI57
aI3
aI317
aI333
aI269
aI313
aI353
aI330
aI48
aI76
aI0
aI321
aI333
aI299
aI0
aI70
aI285
aI285
aI299
aI0
aI0
aI64
aI50
aI98
aI77
aI340
aI0
aI299
aI26
aI359
aI54
aI266
aI46
aI0
aI1
aI341
aI299
aI38
aI8
aI19
aI270
aI327
aI1
aI332
aI344
aI44
aI45
aI60
aI0
aI35
aI56
aI25
aI317
aI0
aI269
aI0
aI279
aI48
aI42
aI0
aI283
aI90
aI292
aI87
aI58
aI39
aI45
aI271
aI270
aI15
aI312
aI0
aI46
aI28
aI330
aI1
aI49
aI329
aI297
aI52
aI93
aI317
aI326
aI1
aI1
aI36
aI48
aI335
aI319
aI54
aI343
aI321
aI324
aI0
aI0
aI299
aI328
aI325
aI37
aI0
aI0
aI2
aI0
aI325
aI91
aI60
aI57
aI341
aI75
aI58
aI335
aI267
aI37
aI30
aI22
aI0
aI0
aI46
aI0
aI30
aI0
aI6
aI25
aI85
aI81
aI1
aI78
aI58
aI35
aI2
aI63
aI301
aI82
aI35
aI282
aI0
aI308
aI311
aI275
aI302
aI25
aI298
aI303
aI340
aI0
aI344
aI310
aI307
aI310
aI38
aI309
aI9
aI330
aI284
aI33
aI48
aI0
aI300
aI346
aI305
aI343
aI349
aI17
aI7
aI62
aI57
aI335
aI54
aI0
aI89
aI12
aI0
aI293
aI325
aI306
aI2
aI350
aI292
aI62
aI0
aI72
aI348
aI48
aI2
aI277
aI277
aI0
aI322
aI31
aI311
aI296
aI302
aI314
aI50
aI88
aI51
aI0
aI15
aI0
aI335
aI48
aI304
aI62
aI19
aI88
aI0
aI51
aI0
aI290
aI73
aI4
aI0
aI7
aI9
aI0
aI84
aI40
aI0
aI65
aI90
aI0
aI288
aI329
aI335
aI0
aI283
aI22
aI0
aI44
aI17
aI299
aI58
aI325
aI32
aI86
aI37
aI22
aI14
aI60
aI19
aI76
aI29
aI0
aI0
aI306
aI90
aI20
aI63
aI2
aI321
aI0
aI294
aI0
aI51
aI0
aI0
aI337
aI97
aI0
aI305
aI0
aI52
aI310
aI0
aI325
aI22
aI98
aI90
aI306
aI344
aI295
aI287
aI1
aI27
aI0
aI337
aI350
aI316
aI13
aI0
aI279
aI279
aI302
aI0
aI316
aI288
aI335
aI40
aI58
aI346
aI28
aI33
aI35
aI285
aI43
aI37
aI21
aI0
aI43
aI326
aI333
aI0
aI0
aI2
aI310
aI44
aI15
aI71
aI0
aI307
aI0
aI58
aI290
aI7
aI40
aI293
aI36
aI3
aI309
aI25
aI0
aI0
aI45
aI291
aI297
aI324
aI0
aI289
aI89
aI21
aI52
aI48
aI315
aI5
aI2
aI335
aI0
aI295
aI30
aI72
aI2
aI0
aI91
aI42
aI28
aI311
aI322
aI49
aI0
aI337
aI318
aI321
aI0
aI38
aI308
aI67
aI30
aI36
aI0
aI339
aI292
aI0
aI322
aI50
aI1
aI311
aI31
aI335
aI24
aI45
aI59
aI306
aI13
aI10
aI300
aI46
aI0
aI297
aI90
aI0
aI15
aI320
aI77
aI25
aI320
aI270
aI52
aI305
aI0
aI48
aI49
aI319
aI34
aI40
aI0
aI35
aI339
aI55
aI312
aI0
aI0
aI51
aI332
aI43
aI22
aI16
aI77
aI25
aI90
aI36
aI0
aI351
aI0
aI0
aI55
aI1
aI9
aI0
aI64
aI7
aI32
aI56
aI88
aI40
aI15
aI290
aI33
aI284
aI6
aI273
aI281
aI270
aI269
aI35
aI68
aI69
aI54
aI0
aI92
aI0
aI0
aI294
aI314
aI0
aI0
aI71
aI31
aI321
aI40
aI329
aI326
aI274
aI5
aI296
aI0
aI65
aI42
aI302
aI325
aI62
aI69
aI31
aI279
aI88
aI293
aI0
aI68
aI0
aI48
aI316
aI39
aI322
aI336
aI0
aI53
aI42
aI0
aI287
aI92
aI330
aI50
aI1
aI0
aI29
aI16
aI1
aI0
aI310
aI35
aI321
aI269
aI297
aI45
aI56
aI0
aI3
aI0
aI0
aI297
aI38
aI0
aI331
aI0
aI25
aI309
aI0
aI60
aI0
aI322
aI91
aI325
aI6
aI59
aI0
aI77
aI56
aI329
aI0
aI0
aI31
aI89
aI36
aI0
aI50
aI17
aI71
aI36
aI47
aI46
aI0
aI44
aI63
aI270
aI272
aI0
aI4
aI19
aI321
aI53
aI334
aI0
aI0
aI271
aI48
aI273
aI338
aI0
aI332
aI345
aI62
aI64
aI345
aI0
aI86
aI351
aI58
aI68
aI42
aI294
aI89
aI12
aI40
aI289
aI286
aI309
aI66
aI28
aI50
aI331
aI326
aI64
aI0
aI63
aI0
aI75
aI35
aI332
aI17
aI315
aI338
aI81
aI42
aI333
aI89
aI37
aI0
aI1
aI0
aI0
aI336
aI297
aI294
aI0
aI3
aI0
aI308
aI312
aI291
aI16
aI48
aI34
aI29
aI346
aI88
aI329
aI350
aI0
aI90
aI308
aI0
aI268
aI58
aI331
aI277
aI328
aI48
aI64
aI50
aI317
aI60
aI55
aI0
aI0
aI57
aI0
aI280
aI0
aI325
aI88
aI36
aI3
aI2
aI268
aI48
aI55
aI47
aI33
aI323
aI62
aI49
aI4
aI32
aI57
aI47
aI82
aI5
aI290
aI304
aI86
aI276
aI31
aI0
aI10
aI25
aI2
aI31
aI0
aI56
aI303
aI0
aI63
aI72
aI324
aI328
aI65
aI0
aI329
aI1
aI73
aI307
aI50
aI29
aI359
aI39
aI7
aI55
aI0
aI0
aI73
aI291
aI10
aI90
aI326
aI28
aI293
aI19
aI0
aI81
aI0
aI322
aI32
aI43
aI0
aI90
aI271
aI23
aI286
aI351
aI304
aI68
aI78
aI262
aI30
aI49
aI0
aI64
aI319
aI0
aI33
aI77
aI318
aI30
aI0
aI72
aI59
aI69
aI340
aI334
aI10
aI322
aI0
aI0
aI270
aI328
aI21
aI295
aI82
aI0
aI310
aI268
aI298
aI48
aI0
aI285
aI56
aI48
aI29
aI269
aI330
aI321
aI0
aI23
aI26
aI57
aI0
aI0
aI26
aI305
aI41
aI330
aI0
aI332
aI275
aI324
aI310
aI275
aI299
aI88
aI291
aI287
aI50
aI0
aI49
aI306
aI339
aI295
aI81
aI329
aI0
aI0
aI292
aI318
aI283
aI15
aI0
aI32
aI40
aI305
aI95
aI266
aI80
aI268
aI0
aI54
aI298
aI327
aI60
aI306
aI50
aI328
aI13
aI1
aI292
aI0
aI288
aI40
aI0
aI2
aI274
aI10
aI0
aI50
aI269
aI0
aI325
aI326
aI0
aI59
aI47
aI302
aI330
aI288
aI305
aI340
aI315
aI0
aI295
aI314
aI39
aI79
aI291
aI39
aI82
aI27
aI22
aI308
aI257
aI324
aI334
aI0
aI94
aI303
aI0
aI62
aI0
aI38
aI0
aI332
aI82
aI88
aI71
aI67
aI90
aI9
aI302
aI319
aI4
aI0
aI61
aI0
aI10
aI312
aI75
aI271
aI0
aI2
aI43
aI314
aI6
aI3
aI11
aI55
aI265
aI85
aI318
aI46
aI325
aI291
aI55
aI0
aI0
aI0
aI0
aI263
aI39
aI6
aI0
aI0
aI0
aI24
aI49
aI316
aI0
aI1
aI311
aI1
aI296
aI0
aI17
aI313
aI22
aI318
aI39
aI337
aI324
aI0
aI268
aI16
aI47
aI62
aI41
aI336
aI312
aI13
aI337
aI268
aI284
aI0
aI0
aI345
aI298
aI11
aI0
aI328
aI298
aI348
aI0
aI53
aI88
aI0
aI56
aI333
aI0
aI324
aI327
aI2
aI0
aI3
aI71
aI13
aI72
aI309
aI303
aI268
aI345
aI0
aI333
aI300
aI297
aI343
aI66
aI338
aI71
aI316
aI0
aI90
aI2
aI267
aI274
aI68
aI21
aI325
aI270
aI304
aI0
aI292
aI298
aI44
aI89
aI298
aI55
aI1
aI331
aI303
aI84
aI83
aI40
aI349
aI0
aI56
aI74
aI32
aI335
aI21
aI0
aI43
aI49
aI268
aI300
aI46
aI70
aI302
aI352
aI92
aI48
aI12
aI11
aI309
aI309
aI323
aI24
aI2
aI333
aI323
aI8
aI50
aI0
aI2
aI42
aI276
aI63
aI13
aI0
aI18
aI337
aI352
aI81
aI2
aI70
aI78
aI270
aI326
aI55
aI0
aI20
aI0
aI269
aI274
aI301
aI0
aI294
aI321
aI0
aI49
aI305
aI46
aI5
aI52
aI24
aI70
aI0
aI279
aI62
aI268
aI86
aI91
aI291
aI317
aI352
aI321
aI54
aI277
aI311
aI271
aI42
aI9
aI313
aI312
aI23
aI60
aI0
aI292
aI57
aI322
aI321
aI10
aI11
aI0
aI91
aI296
aI1
aI2
aI330
aI46
aI59
aI80
aI40
aI31
aI42
aI265
aI339
aI89
aI54
aI272
aI22
aI347
aI317
aI1
aI289
aI88
aI0
aI2
aI56
asa.